
milestone2.elf:     file format elf32-littlenios2
milestone2.elf
architecture: nios2:r1, flags 0x00000112:
EXEC_P, HAS_SYMS, D_PAGED
start address 0x04040244

Program Header:
    LOAD off    0x00001000 vaddr 0x04040000 paddr 0x04040000 align 2**12
         filesz 0x00000020 memsz 0x00000020 flags r-x
    LOAD off    0x00001020 vaddr 0x04040020 paddr 0x04040020 align 2**12
         filesz 0x0001a0ac memsz 0x0001a0ac flags r-x
    LOAD off    0x0001c000 vaddr 0x02000000 paddr 0x0405a0cc align 2**12
         filesz 0x00002254 memsz 0x00015688 flags rw-

Sections:
Idx Name          Size      VMA       LMA       File off  Algn
  0 .entry        00000020  04040000  04040000  00001000  2**5
                  CONTENTS, ALLOC, LOAD, READONLY, CODE
  1 .exceptions   00000224  04040020  04040020  00001020  2**2
                  CONTENTS, ALLOC, LOAD, READONLY, CODE
  2 .text         00019e88  04040244  04040244  00001244  2**2
                  CONTENTS, ALLOC, LOAD, READONLY, CODE
  3 .rodata       00000664  02000000  0405a0cc  0001c000  2**2
                  CONTENTS, ALLOC, LOAD, READONLY, DATA
  4 .rwdata       00001bf0  02000664  0405a730  0001c664  2**2
                  CONTENTS, ALLOC, LOAD, DATA, SMALL_DATA
  5 .bss          00013434  02002254  0405c320  0001e254  2**2
                  ALLOC, SMALL_DATA
  6 .SDRAM        00000000  02015688  02015688  0001e254  2**0
                  CONTENTS
  7 .NIOS_MEM     00000000  0405c320  0405c320  0001e254  2**0
                  CONTENTS
  8 .comment      00000023  00000000  00000000  0001e254  2**0
                  CONTENTS, READONLY
  9 .debug_aranges 00001040  00000000  00000000  0001e278  2**3
                  CONTENTS, READONLY, DEBUGGING
 10 .debug_info   0002e3f0  00000000  00000000  0001f2b8  2**0
                  CONTENTS, READONLY, DEBUGGING
 11 .debug_abbrev 0000adb4  00000000  00000000  0004d6a8  2**0
                  CONTENTS, READONLY, DEBUGGING
 12 .debug_line   0000e1f5  00000000  00000000  0005845c  2**0
                  CONTENTS, READONLY, DEBUGGING
 13 .debug_frame  0000347c  00000000  00000000  00066654  2**2
                  CONTENTS, READONLY, DEBUGGING
 14 .debug_str    00004e29  00000000  00000000  00069ad0  2**0
                  CONTENTS, READONLY, DEBUGGING
 15 .debug_loc    000178c0  00000000  00000000  0006e8f9  2**0
                  CONTENTS, READONLY, DEBUGGING
 16 .debug_alt_sim_info 00000030  00000000  00000000  000861bc  2**2
                  CONTENTS, READONLY, DEBUGGING
 17 .debug_ranges 000018d8  00000000  00000000  000861f0  2**3
                  CONTENTS, READONLY, DEBUGGING
 18 .thread_model 00000006  00000000  00000000  0008ca9a  2**0
                  CONTENTS, READONLY
 19 .cpu          00000009  00000000  00000000  0008caa0  2**0
                  CONTENTS, READONLY
 20 .qsys         00000001  00000000  00000000  0008caa9  2**0
                  CONTENTS, READONLY
 21 .simulation_enabled 00000001  00000000  00000000  0008caaa  2**0
                  CONTENTS, READONLY
 22 .stderr_dev   00000009  00000000  00000000  0008caab  2**0
                  CONTENTS, READONLY
 23 .stdin_dev    00000009  00000000  00000000  0008cab4  2**0
                  CONTENTS, READONLY
 24 .stdout_dev   00000009  00000000  00000000  0008cabd  2**0
                  CONTENTS, READONLY
 25 .sopc_system_name 0000000c  00000000  00000000  0008cac6  2**0
                  CONTENTS, READONLY
 26 .quartus_project_dir 00000028  00000000  00000000  0008cad2  2**0
                  CONTENTS, READONLY
 27 .jdi          00005283  00000000  00000000  0008cafa  2**0
                  CONTENTS, READONLY
 28 .sopcinfo     00079ac1  00000000  00000000  00091d7d  2**0
                  CONTENTS, READONLY
SYMBOL TABLE:
04040000 l    d  .entry	00000000 .entry
04040020 l    d  .exceptions	00000000 .exceptions
04040244 l    d  .text	00000000 .text
02000000 l    d  .rodata	00000000 .rodata
02000664 l    d  .rwdata	00000000 .rwdata
02002254 l    d  .bss	00000000 .bss
02015688 l    d  .SDRAM	00000000 .SDRAM
0405c320 l    d  .NIOS_MEM	00000000 .NIOS_MEM
00000000 l    d  .comment	00000000 .comment
00000000 l    d  .debug_aranges	00000000 .debug_aranges
00000000 l    d  .debug_info	00000000 .debug_info
00000000 l    d  .debug_abbrev	00000000 .debug_abbrev
00000000 l    d  .debug_line	00000000 .debug_line
00000000 l    d  .debug_frame	00000000 .debug_frame
00000000 l    d  .debug_str	00000000 .debug_str
00000000 l    d  .debug_loc	00000000 .debug_loc
00000000 l    d  .debug_alt_sim_info	00000000 .debug_alt_sim_info
00000000 l    d  .debug_ranges	00000000 .debug_ranges
00000000 l    df *ABS*	00000000 ../milestone2_bsp//obj/HAL/src/crt0.o
0404028c l       .text	00000000 alt_after_alt_main
00000000 l    df *ABS*	00000000 alt_irq_handler.c
00000000 l    df *ABS*	00000000 alt_instruction_exception_entry.c
00000000 l    df *ABS*	00000000 milestone2_main.c
0404063c l     F .text	0000006c initButtonIRQ
040406a8 l     F .text	0000006c initSwIRQ
00000000 l    df *ABS*	00000000 lib2-divmod.c
00000000 l    df *ABS*	00000000 malloc.c
00000000 l    df *ABS*	00000000 mallocr.c
00000000 l    df *ABS*	00000000 memcpy.c
00000000 l    df *ABS*	00000000 printf.c
00000000 l    df *ABS*	00000000 puts.c
00000000 l    df *ABS*	00000000 sbrkr.c
00000000 l    df *ABS*	00000000 strlen.c
00000000 l    df *ABS*	00000000 vfprintf.c
0200028e l     O .rodata	00000010 zeroes.4404
04045e28 l     F .text	000000bc __sbprintf
0200029e l     O .rodata	00000010 blanks.4403
00000000 l    df *ABS*	00000000 wsetup.c
00000000 l    df *ABS*	00000000 dtoa.c
04046038 l     F .text	00000200 quorem
00000000 l    df *ABS*	00000000 fflush.c
00000000 l    df *ABS*	00000000 findfp.c
04047b68 l     F .text	00000008 __fp_unlock
04047b7c l     F .text	0000019c __sinit.part.1
04047d18 l     F .text	00000008 __fp_lock
00000000 l    df *ABS*	00000000 mallocr.c
00000000 l    df *ABS*	00000000 fvwrite.c
00000000 l    df *ABS*	00000000 fwalk.c
00000000 l    df *ABS*	00000000 impure.c
02000ae8 l     O .rwdata	00000424 impure_data
00000000 l    df *ABS*	00000000 int_errno.c
00000000 l    df *ABS*	00000000 locale.c
02000f2c l     O .rwdata	00000020 lc_ctype_charset
02000f0c l     O .rwdata	00000020 lc_message_charset
02000f4c l     O .rwdata	00000038 lconv
00000000 l    df *ABS*	00000000 makebuf.c
00000000 l    df *ABS*	00000000 memchr.c
00000000 l    df *ABS*	00000000 memmove.c
00000000 l    df *ABS*	00000000 memset.c
00000000 l    df *ABS*	00000000 mprec.c
020002d0 l     O .rodata	0000000c p05.2768
00000000 l    df *ABS*	00000000 mallocr.c
00000000 l    df *ABS*	00000000 s_fpclassify.c
00000000 l    df *ABS*	00000000 stdio.c
00000000 l    df *ABS*	00000000 strcmp.c
00000000 l    df *ABS*	00000000 vfprintf.c
0404a76c l     F .text	000000fc __sprint_r.part.0
02000404 l     O .rodata	00000010 blanks.4348
020003f4 l     O .rodata	00000010 zeroes.4349
0404bcf8 l     F .text	000000bc __sbprintf
00000000 l    df *ABS*	00000000 writer.c
00000000 l    df *ABS*	00000000 closer.c
00000000 l    df *ABS*	00000000 mallocr.c
00000000 l    df *ABS*	00000000 fclose.c
00000000 l    df *ABS*	00000000 fputwc.c
00000000 l    df *ABS*	00000000 fstatr.c
00000000 l    df *ABS*	00000000 isattyr.c
00000000 l    df *ABS*	00000000 lseekr.c
00000000 l    df *ABS*	00000000 readr.c
00000000 l    df *ABS*	00000000 wbuf.c
00000000 l    df *ABS*	00000000 wcrtomb.c
00000000 l    df *ABS*	00000000 wctomb_r.c
00000000 l    df *ABS*	00000000 libgcc2.c
00000000 l    df *ABS*	00000000 libgcc2.c
00000000 l    df *ABS*	00000000 adddf3.c
00000000 l    df *ABS*	00000000 divdf3.c
00000000 l    df *ABS*	00000000 eqdf2.c
00000000 l    df *ABS*	00000000 gedf2.c
00000000 l    df *ABS*	00000000 ledf2.c
00000000 l    df *ABS*	00000000 muldf3.c
00000000 l    df *ABS*	00000000 subdf3.c
00000000 l    df *ABS*	00000000 fixdfsi.c
00000000 l    df *ABS*	00000000 floatsidf.c
00000000 l    df *ABS*	00000000 floatunsidf.c
00000000 l    df *ABS*	00000000 libgcc2.c
00000000 l    df *ABS*	00000000 libgcc2.c
00000000 l    df *ABS*	00000000 alt_close.c
0404f800 l     F .text	0000003c alt_get_errno
00000000 l    df *ABS*	00000000 alt_dev.c
0404f90c l     F .text	0000002c alt_dev_null_write
00000000 l    df *ABS*	00000000 alt_errno.c
00000000 l    df *ABS*	00000000 alt_fstat.c
0404f938 l     F .text	0000003c alt_get_errno
00000000 l    df *ABS*	00000000 alt_iic.c
00000000 l    df *ABS*	00000000 alt_iic_isr_register.c
00000000 l    df *ABS*	00000000 alt_irq_vars.c
00000000 l    df *ABS*	00000000 alt_isatty.c
0404fcc4 l     F .text	0000003c alt_get_errno
00000000 l    df *ABS*	00000000 alt_load.c
0404fda4 l     F .text	00000068 alt_load_section
00000000 l    df *ABS*	00000000 alt_lseek.c
0404fe90 l     F .text	0000003c alt_get_errno
00000000 l    df *ABS*	00000000 alt_main.c
00000000 l    df *ABS*	00000000 alt_read.c
0405005c l     F .text	0000003c alt_get_errno
00000000 l    df *ABS*	00000000 alt_release_fd.c
00000000 l    df *ABS*	00000000 alt_sbrk.c
020021cc l     O .rwdata	00000004 heap_end
00000000 l    df *ABS*	00000000 alt_write.c
040502a8 l     F .text	0000003c alt_get_errno
00000000 l    df *ABS*	00000000 alt_env_lock.c
020021d0 l     O .rwdata	00000004 lockid
020022d0 l     O .bss	00000004 locks
00000000 l    df *ABS*	00000000 alt_malloc_lock.c
020021d4 l     O .rwdata	00000004 lockid
020022d8 l     O .bss	00000004 locks
00000000 l    df *ABS*	00000000 os_core.c
04051cd8 l     F .text	00000048 OS_InitMisc
04051d20 l     F .text	0000006c OS_InitRdyList
04051e8c l     F .text	000000e4 OS_InitTCBList
04051bf8 l     F .text	000000e0 OS_InitEventList
04051d8c l     F .text	00000080 OS_InitTaskIdle
04051e0c l     F .text	00000080 OS_InitTaskStat
040520fc l     F .text	00000074 OS_SchedNew
00000000 l    df *ABS*	00000000 os_dbg.c
00000000 l    df *ABS*	00000000 os_flag.c
04053e0c l     F .text	000000f4 OS_FlagTaskRdy
04053bcc l     F .text	00000160 OS_FlagBlock
00000000 l    df *ABS*	00000000 os_mem.c
00000000 l    df *ABS*	00000000 os_q.c
00000000 l    df *ABS*	00000000 os_sem.c
00000000 l    df *ABS*	00000000 os_task.c
00000000 l    df *ABS*	00000000 os_time.c
00000000 l    df *ABS*	00000000 alt_sys_init.c
04057eb0 l     F .text	00000034 alt_dev_reg
0200112c l     O .rwdata	0000106c UART_JTAG
00000000 l    df *ABS*	00000000 altera_avalon_jtag_uart_fd.c
00000000 l    df *ABS*	00000000 altera_avalon_jtag_uart_init.c
04058228 l     F .text	000002a4 altera_avalon_jtag_uart_irq
040584cc l     F .text	00000104 altera_avalon_jtag_uart_timeout
00000000 l    df *ABS*	00000000 altera_avalon_jtag_uart_ioctl.c
00000000 l    df *ABS*	00000000 altera_avalon_jtag_uart_read.c
00000000 l    df *ABS*	00000000 altera_avalon_jtag_uart_write.c
00000000 l    df *ABS*	00000000 altera_avalon_timer_sc.c
04058ca8 l     F .text	00000078 alt_avalon_timer_sc_irq
00000000 l    df *ABS*	00000000 alt_alarm_start.c
00000000 l    df *ABS*	00000000 alt_dcache_flush_all.c
00000000 l    df *ABS*	00000000 alt_dev_llist_insert.c
04058f10 l     F .text	0000003c alt_get_errno
00000000 l    df *ABS*	00000000 alt_do_ctors.c
00000000 l    df *ABS*	00000000 alt_do_dtors.c
00000000 l    df *ABS*	00000000 alt_icache_flush_all.c
00000000 l    df *ABS*	00000000 alt_io_redirect.c
04059180 l     F .text	000000c4 alt_open_fd
00000000 l    df *ABS*	00000000 alt_open.c
040592c0 l     F .text	0000003c alt_get_errno
040592fc l     F .text	000000c4 alt_file_locked
00000000 l    df *ABS*	00000000 alt_tick.c
00000000 l    df *ABS*	00000000 altera_nios2_gen2_irq.c
00000000 l    df *ABS*	00000000 os_cpu_a.o
00000040 l       *ABS*	00000000 OSCtxSw_SWITCH_PC
00000000 l    df *ABS*	00000000 os_cpu_c.c
00000014 l       *ABS*	00000000 OSTCBNext_OFFSET
00000032 l       *ABS*	00000000 OSTCBPrio_OFFSET
00000000 l       *ABS*	00000000 OSTCBStkPtr_OFFSET
00000000 l    df *ABS*	00000000 alt_find_dev.c
00000000 l    df *ABS*	00000000 alt_find_file.c
00000000 l    df *ABS*	00000000 alt_get_fd.c
00000000 l    df *ABS*	00000000 alt_icache_flush.c
00000000 l    df *ABS*	00000000 atexit.c
00000000 l    df *ABS*	00000000 exit.c
00000000 l    df *ABS*	00000000 memcmp.c
00000000 l    df *ABS*	00000000 __atexit.c
00000000 l    df *ABS*	00000000 __call_atexit.c
00000000 l    df *ABS*	00000000 alt_exit.c
02002330 g     O .bss	00000004 alt_instruction_exception_handler
04049e04 g     F .text	00000074 _mprec_log10
02002222 g     O .rwdata	00000002 OSTaskNameSize
04049ef0 g     F .text	0000008c __any_on
0404c294 g     F .text	00000054 _isatty_r
020002dc g     O .rodata	00000028 __mprec_tinytens
0404ffa0 g     F .text	000000bc alt_main
040425fc g     F .text	000001e0 imageProcessorTask
0200226c g     O .bss	00000004 semLockEdgeImgPointer
04043a54 g     F .text	000000c0 _puts_r
02012364 g     O .bss	00000100 alt_irq
0404c2e8 g     F .text	00000060 _lseek_r
0405462c g     F .text	000000cc OS_MemInit
02000674 g     O .rwdata	00000024 kernEdgeDetectH
0405a730 g       *ABS*	00000000 __flash_rwdata_start
04057e50 g     F .text	00000060 OSTimeSet
0404e32c g     F .text	00000088 .hidden __eqdf2
0405094c g     F .text	00000610 OSEventPendMulti
02015688 g       *ABS*	00000000 __alt_heap_start
04059908 g     F .text	00000024 OSTaskCreateHook
04043a18 g     F .text	0000003c printf
020021fa g     O .rwdata	00000002 OSMboxEn
04050fb4 g     F .text	0000004c OSIntEnter
0404c500 g     F .text	0000009c _wcrtomb_r
0404a62c g     F .text	0000005c __sseek
04047eb8 g     F .text	00000010 __sinit
0404c3a8 g     F .text	00000140 __swbuf_r
0200220a g     O .rwdata	00000002 OSQEn
04048980 g     F .text	0000007c _setlocale_r
02002270 g     O .bss	00000004 semDisplay4
04047d20 g     F .text	00000068 __sfmoreglue
04050620 g     F .text	000000cc __malloc_unlock
04059970 g     F .text	00000020 OSTaskStatHook
020022e0 g     O .bss	00000001 OSLockNesting
0404181c g     F .text	00000314 fastBlurImg
02002248 g     O .rwdata	00000002 OSDataSize
020022e1 g     O .bss	00000001 OSRunning
04048cfc g     F .text	0000015c memmove
02002264 g     O .bss	00000004 totalTime
040599b0 g     F .text	00000020 OSInitHookBegin
02002240 g     O .rwdata	00000002 OSTmrSize
04047ea0 g     F .text	00000018 _cleanup
04048f80 g     F .text	000000a8 _Balloc
020022e4 g     O .bss	00000004 OSIdleCtr
0404e3b4 g     F .text	000000dc .hidden __gtdf2
04040ca0 g     F .text	00000290 edgeDetectionConv
040596b8 g     F .text	00000024 altera_nios2_gen2_irq_init
04059788 g       .text	00000000 OSStartTsk
0405242c g     F .text	000002d4 OS_TCBInit
04040000 g     F .entry	0000001c __reset
0200225c g     O .bss	00000004 blurTime
02002246 g     O .rwdata	00000002 OSTmrWheelTblSize
04040020 g       *ABS*	00000000 __flash_exceptions_start
020021e6 g     O .rwdata	00000002 OSEventSize
020022e8 g     O .bss	00000001 OSPrioHighRdy
0404c238 g     F .text	0000005c _fstat_r
0405992c g     F .text	00000024 OSTaskDelHook
020022ac g     O .bss	00000004 errno
0404a5a8 g     F .text	00000008 __seofread
04059768 g       .text	00000000 OSStartHighRdy
040568f8 g     F .text	000001e4 OSTaskCreateExt
04040aa8 g     F .text	000001f8 downscaleImg2x
04053714 g     F .text	00000060 OSFlagPendGetFlagsRdy
02002226 g     O .rwdata	00000002 OSTaskStatStkSize
04052890 g     F .text	00000308 OSFlagAccept
04054c64 g     F .text	000000b8 OSQFlush
040546f8 g     F .text	00000140 OSQAccept
020022c8 g     O .bss	00000004 alt_argv
0200a198 g       *ABS*	00000000 _gp
0405674c g     F .text	000001ac OSTaskCreate
0405625c g     F .text	000004f0 OSTaskChangePrio
020022dc g     O .bss	00000004 alt_heapsem
04052700 g     F .text	00000190 OSDebugInit
04056adc g     F .text	00000344 OSTaskDel
02000fac g     O .rwdata	00000180 alt_fd_list
02012464 g     O .bss	00000370 OSFlagTbl
04040290 g     F .text	00000080 clrBuffer
04041b30 g     F .text	000000b4 reverseImg
040519d8 g     F .text	000000b8 OS_EventTaskRemove
04059a34 g     F .text	00000090 alt_find_dev
040438a0 g     F .text	00000148 memcpy
02002210 g     O .rwdata	00000002 OSRdyTblSize
02002274 g     O .bss	00000004 semDisplay3
04047b70 g     F .text	0000000c _cleanup_r
040427dc g     F .text	00000624 mainTask
0404f618 g     F .text	000000dc .hidden __floatsidf
04059244 g     F .text	0000007c alt_io_redirect
0404e490 g     F .text	000000f4 .hidden __ltdf2
0405a0cc g       *ABS*	00000000 __DTOR_END__
04043b14 g     F .text	00000014 puts
040590e4 g     F .text	0000009c alt_exception_cause_generated_bad_addr
040506ec g     F .text	00000120 OSEventNameGet
020021f4 g     O .rwdata	00000002 OSFlagMax
04042364 g     F .text	00000218 imageFourTask
0404a4e0 g     F .text	00000074 __fpclassifyd
04049d60 g     F .text	000000a4 __ratio
04051000 g     F .text	000000f8 OSIntExit
0404bcdc g     F .text	0000001c __vfiprintf_internal
0200222e g     O .rwdata	00000002 OSTCBSize
020022e9 g     O .bss	00000001 OSPrioCur
04058728 g     F .text	000002bc altera_avalon_jtag_uart_read
0404306c g     F .text	00000014 malloc
040439e8 g     F .text	00000030 _printf_r
04042fb0 g     F .text	00000064 .hidden __udivsi3
0404fd00 g     F .text	000000a4 isatty
02002214 g     O .rwdata	00000002 OSStkWidth
0200032c g     O .rodata	000000c8 __mprec_tens
02002208 g     O .rwdata	00000002 OSPtrSize
040489fc g     F .text	0000000c __locale_charset
020021e8 g     O .rwdata	00000002 OSEventTblSize
040596dc g       .text	00000000 OSCtxSw
04059ca8 g     F .text	00000090 alt_icache_flush
020022a8 g     O .bss	00000004 __malloc_top_pad
02002268 g     O .bss	00000004 currentlyDislayed
020022ec g     O .bss	00000004 OSTCBList
020022bc g     O .bss	00000004 alt_fd_list_lock
020021a8 g     O .rwdata	00000004 __mb_cur_max
04048a2c g     F .text	0000000c _localeconv_r
0404938c g     F .text	0000003c __i2b
0404833c g     F .text	000004bc __sfvwrite_r
020127d4 g     O .bss	00000c30 OSMemTbl
020022f0 g     O .bss	00000001 OSTickStepState
04043b28 g     F .text	00000054 _sbrk_r
040409a0 g     F .text	00000108 conv
0200220c g     O .rwdata	00000002 OSQMax
02013404 g     O .bss	00000800 OSTaskStatStk
04054268 g     F .text	000000f0 OSMemNameGet
020021ec g     O .rwdata	00000002 OSFlagEn
0404c348 g     F .text	00000060 _read_r
02002232 g     O .rwdata	00000002 OSTimeTickHookEn
04055114 g     F .text	00000168 OSQPost
04053f00 g     F .text	000000a4 OS_FlagUnlink
020021c0 g     O .rwdata	00000004 alt_max_fd
04051fc4 g     F .text	00000068 OS_MemCopy
0405202c g     F .text	000000d0 OS_Sched
0404bf2c g     F .text	000000f0 _fclose_r
04054178 g     F .text	000000f0 OSMemGet
04057108 g     F .text	000001b4 OSTaskNameSet
04047b38 g     F .text	00000030 fflush
020022a4 g     O .bss	00000004 __malloc_max_sbrked_mem
020022f4 g     O .bss	00000004 OSCtxSwCtr
04059990 g     F .text	00000020 OSTimeTickHook
020021f6 g     O .rwdata	00000002 OSFlagNameSize
04051a90 g     F .text	00000100 OS_EventTaskRemoveMulti
0404d198 g     F .text	000008ac .hidden __adddf3
04051888 g     F .text	00000150 OS_EventTaskWaitMulti
04049b08 g     F .text	0000010c __b2d
02002364 g     O .bss	00002000 imageThreeTask_stk
0200220e g     O .rwdata	00000002 OSQSize
0404cc60 g     F .text	00000538 .hidden __umoddi3
0404fecc g     F .text	000000d4 lseek
040415ac g     F .text	00000270 blurImgConv
04055bc4 g     F .text	0000020c OSSemPend
020021a0 g     O .rwdata	00000004 _global_impure_ptr
02004364 g     O .bss	00002000 switchManagerTask_stk
04049f7c g     F .text	00000564 _realloc_r
02006364 g     O .bss	00002000 imageProcessorTask_stk
020021f8 g     O .rwdata	00000002 OSLowestPrio
02015688 g       *ABS*	00000000 __bss_end
0404fbd4 g     F .text	000000f0 alt_iic_isr_register
04059a10 g     F .text	00000024 OSTCBInitHook
0200223e g     O .rwdata	00000002 OSTmrCfgTicksPerSec
040595b0 g     F .text	00000108 alt_tick
0404c6e8 g     F .text	00000578 .hidden __udivdi3
0404c194 g     F .text	00000024 _fputwc_r
020021e0 g     O .rwdata	00000002 OSEventEn
02000304 g     O .rodata	00000028 __mprec_bigtens
04049170 g     F .text	00000104 __s2b
0200223a g     O .rwdata	00000002 OSTmrCfgNameSize
0404214c g     F .text	00000218 imageThreeTask
0404f6f4 g     F .text	000000a8 .hidden __floatunsidf
04049848 g     F .text	00000060 __mcmp
04047ed8 g     F .text	00000018 __fp_lock_all
0404fb88 g     F .text	0000004c alt_ic_irq_enabled
02000698 g     O .rwdata	00000024 kernEdgeDetectV
04053d2c g     F .text	000000e0 OS_FlagInit
04059514 g     F .text	0000009c alt_alarm_stop
0200221c g     O .rwdata	00000002 OSTaskIdleStkSize
020022c0 g     O .bss	00000004 alt_irq_active
040557fc g     F .text	000000b0 OSSemAccept
0405446c g     F .text	000000d8 OSMemPut
04053fa4 g     F .text	000001d4 OSMemCreate
020022f8 g     O .bss	00000004 OSIdleCtrMax
040400fc g     F .exceptions	000000d4 alt_irq_handler
02000f84 g     O .rwdata	00000028 alt_dev_null
02002230 g     O .rwdata	00000002 OSTicksPerSec
02002278 g     O .bss	00000004 semSwChange
040596dc g       .text	00000000 OSIntCtxSw
04041c88 g     F .text	00000098 imgToSDRAM
04058ec8 g     F .text	00000048 alt_dcache_flush_all
04049274 g     F .text	00000068 __hi0bits
0404f598 g     F .text	00000080 .hidden __fixdfsi
020022fc g     O .bss	00000004 OSTCBFreeList
02002254 g       *ABS*	00000000 __ram_rwdata_end
04055dd0 g     F .text	0000016c OSSemPendAbort
020021b8 g     O .rwdata	00000008 alt_dev_list
040502e4 g     F .text	000000f8 write
0200227c g     O .bss	00000004 semSwitchChange
02002234 g     O .rwdata	00000002 OSVersionNbr
02000664 g       *ABS*	00000000 __ram_rodata_end
0404f974 g     F .text	000000b0 fstat
00000000 g       *ABS*	00000000 __alt_mem_SDRAM
0404e490 g     F .text	000000f4 .hidden __ledf2
020021dc g     O .rwdata	00000004 OSEndiannessTest
040495c0 g     F .text	00000140 __pow5mult
0404a880 g     F .text	0000145c ___vfiprintf_internal_r
020022b8 g     O .bss	00000004 __nlocale_changed
04043014 g     F .text	00000058 .hidden __umodsi3
020021ee g     O .rwdata	00000002 OSFlagGrpSize
04040714 g     F .text	0000010c imageToBuffer
02015688 g       *ABS*	00000000 end
02008364 g     O .bss	00002000 imageOneTask_stk
02000664 g     O .rwdata	00000010 kernDownscale2x
040580e0 g     F .text	00000148 altera_avalon_jtag_uart_init
04052294 g     F .text	000000cc OS_TaskStat
040401d0 g     F .exceptions	00000074 alt_instruction_exception_entry
0405a0cc g       *ABS*	00000000 __CTOR_LIST__
04000000 g       *ABS*	00000000 __alt_stack_pointer
04058d20 g     F .text	0000007c alt_avalon_timer_sc_init
0404f79c g     F .text	00000064 .hidden __clzsi2
040589e4 g     F .text	000002c4 altera_avalon_jtag_uart_write
04047ec8 g     F .text	00000004 __sfp_lock_acquire
04048c18 g     F .text	000000e4 memchr
04051f70 g     F .text	00000054 OS_MemClr
04043c14 g     F .text	000021f8 ___vfprintf_internal_r
040597ac g     F .text	0000015c OSTaskStkInit
0404802c g     F .text	00000310 _free_r
04048a08 g     F .text	00000010 __locale_mb_cur_max
040515e0 g     F .text	00000198 OS_EventTaskRdy
04059f18 g     F .text	00000180 __call_exitprocs
02002300 g     O .bss	00000001 OSCPUUsage
020022b4 g     O .bss	00000004 __mlocale_changed
02002198 g     O .rwdata	00000004 __malloc_sbrk_base
04040244 g     F .text	0000004c _start
02002334 g     O .bss	00000004 _alt_tick_rate
04054d1c g     F .text	0000028c OSQPend
02002280 g     O .bss	00000004 keyPressedContext
02002284 g     O .bss	00000004 semDisplay1
040579c8 g     F .text	00000104 OSTimeDly
04049700 g     F .text	00000148 __lshift
02002338 g     O .bss	00000004 _alt_nticks
04050098 g     F .text	000000fc read
04057f1c g     F .text	00000060 alt_sys_init
040405b4 g     F .text	00000088 SW_IN_ISR
04059e00 g     F .text	00000118 __register_exitproc
02002301 g     O .bss	00000001 OSTaskCtr
020006bc g     O .rwdata	00000024 kernBlur3x
04057acc g     F .text	00000154 OSTimeDlyHMSM
040493c8 g     F .text	000001f8 __multiply
040585d0 g     F .text	00000068 altera_avalon_jtag_uart_close
02000664 g       *ABS*	00000000 __ram_rwdata_start
02000000 g       *ABS*	00000000 __ram_rodata_start
0200233c g     O .bss	00000028 __malloc_current_mallinfo
020021e2 g     O .rwdata	00000002 OSEventMax
04049c14 g     F .text	0000014c __d2b
04055f3c g     F .text	00000110 OSSemPost
02002258 g     O .bss	00000004 flipTime
04051184 g     F .text	000000dc OSSchedUnlock
04057f7c g     F .text	00000060 altera_avalon_jtag_uart_read_fd
04059bcc g     F .text	000000dc alt_get_fd
02002304 g     O .bss	00000004 OSMemFreeList
040512d0 g     F .text	000000b0 OSStatInit
04053b08 g     F .text	000000c4 OSFlagQuery
02002218 g     O .rwdata	00000002 OSTaskCreateExtEn
0404be14 g     F .text	00000054 _close_r
04059d84 g     F .text	0000007c memcmp
040515c0 g     F .text	00000020 OS_Dummy
0405803c g     F .text	00000050 altera_avalon_jtag_uart_close_fd
02015688 g       *ABS*	00000000 __alt_stack_base
0405808c g     F .text	00000054 altera_avalon_jtag_uart_ioctl_fd
04045ee4 g     F .text	00000154 __swsetup_r
02013c04 g     O .bss	000001e0 OSQTbl
0404da44 g     F .text	000008e8 .hidden __divdf3
04047d88 g     F .text	00000118 __sfp
04049e78 g     F .text	00000078 __copybits
020006e0 g     O .rwdata	00000408 __malloc_av_
04047ed4 g     F .text	00000004 __sinit_lock_release
02002308 g     O .bss	00000004 OSTCBHighRdy
0404e584 g     F .text	00000718 .hidden __muldf3
0404a554 g     F .text	00000054 __sread
0200230c g     O .bss	00000004 OSQFreeList
0404052c g     F .text	00000088 KEY_IN_ISR
02002288 g     O .bss	00000004 SwChangedContext
04059ac4 g     F .text	00000108 alt_find_file
04058f4c g     F .text	000000a4 alt_dev_llist_insert
04050500 g     F .text	00000120 __malloc_lock
040501f8 g     F .text	000000b0 sbrk
0405080c g     F .text	00000140 OSEventNameSet
04047adc g     F .text	0000005c _fflush_r
0404be68 g     F .text	000000c4 _calloc_r
02002310 g     O .bss	00000001 OSRdyGrp
02002254 g       *ABS*	00000000 __bss_start
04048e58 g     F .text	00000128 memset
04042e00 g     F .text	000000b8 main
02002260 g     O .bss	00000004 edgeTime
020022cc g     O .bss	00000004 alt_envp
020022a0 g     O .bss	00000004 __malloc_max_total_mem
04057fdc g     F .text	00000060 altera_avalon_jtag_uart_write_fd
0200a364 g     O .bss	00002000 imageFourTask_stk
0404c4e8 g     F .text	00000018 __swbuf
02000530 g     O .rodata	00000100 OSUnMapTbl
0200c364 g     O .bss	00002000 imageTwoTask_stk
02002212 g     O .rwdata	00000002 OSSemEn
04053774 g     F .text	00000394 OSFlagPost
0404a688 g     F .text	00000008 __sclose
04000000 g       *ABS*	00000000 __alt_heap_limit
0404c01c g     F .text	00000014 fclose
04051778 g     F .text	00000110 OS_EventTaskWait
04052360 g     F .text	000000cc OS_TaskStatStkChk
04056e20 g     F .text	00000150 OSTaskDelReq
04040310 g     F .text	0000021c writeImage
04046238 g     F .text	00001688 _dtoa_r
04043094 g     F .text	0000080c _malloc_r
0404c65c g     F .text	00000030 __ascii_wctomb
020021c4 g     O .rwdata	00000004 alt_errno
04051260 g     F .text	00000070 OSStart
040504a0 g     F .text	00000060 __env_unlock
040487f8 g     F .text	000000c4 _fwalk
040572bc g     F .text	000001d4 OSTaskResume
04054544 g     F .text	000000e8 OSMemQuery
02002224 g     O .rwdata	00000002 OSTaskStatEn
020021fe g     O .rwdata	00000002 OSMemMax
0405527c g     F .text	00000170 OSQPostFront
04042eb8 g     F .text	00000084 .hidden __divsi3
02002311 g     O .bss	00000003 OSRdyTbl
020021d8 g     O .rwdata	00000002 OSDebugEn
04047f08 g     F .text	00000124 _malloc_trim_r
0405a0cc g       *ABS*	00000000 __CTOR_END__
020021f0 g     O .rwdata	00000002 OSFlagNodeSize
02002238 g     O .rwdata	00000002 OSTmrCfgMax
0404a690 g     F .text	000000dc strcmp
04054838 g     F .text	000001ac OSQCreate
04056f70 g     F .text	00000198 OSTaskNameGet
0405a0cc g       *ABS*	00000000 __flash_rodata_start
040553ec g     F .text	0000020c OSQPostOpt
04051380 g     F .text	00000220 OSTimeTick
02002220 g     O .rwdata	00000002 OSTaskMax
0405a0cc g       *ABS*	00000000 __DTOR_LIST__
040558ac g     F .text	000000d8 OSSemCreate
02002244 g     O .rwdata	00000002 OSTmrWheelSize
0200228c g     O .bss	00000004 semLockBlurImgPointer
0404e32c g     F .text	00000088 .hidden __nedf2
040425bc g     F .text	00000040 switchManagerTask
0200221a g     O .rwdata	00000002 OSTaskDelEn
0405604c g     F .text	00000110 OSSemQuery
040549e4 g     F .text	00000280 OSQDel
04054fa8 g     F .text	0000016c OSQPendAbort
04057ee4 g     F .text	00000038 alt_irq_init
04050194 g     F .text	00000064 alt_release_fd
04041d20 g     F .text	00000214 imageOneTask
02000414 g     O .rodata	00000100 .hidden __clz_tab
020022b0 g     O .bss	00000004 _PathLocale
04059d38 g     F .text	00000014 atexit
02002290 g     O .bss	00000004 semDisplay2
0404bdb4 g     F .text	00000060 _write_r
04040820 g     F .text	00000180 displayDigit
040510f8 g     F .text	0000008c OSSchedLock
04048a38 g     F .text	00000018 setlocale
04052b98 g     F .text	00000108 OSFlagCreate
020021a4 g     O .rwdata	00000004 _impure_ptr
020022c4 g     O .bss	00000004 alt_argc
040478c0 g     F .text	0000021c __sflush_r
04059050 g     F .text	00000060 _do_dtors
04048a24 g     F .text	00000008 __locale_cjk_lang
020021ea g     O .rwdata	00000002 OSEventMultiEn
04052ca0 g     F .text	00000248 OSFlagDel
02002314 g     O .bss	00000004 OSEventFreeList
04040020 g       .exceptions	00000000 alt_irq_entry
04049aa4 g     F .text	00000064 __ulp
0405315c g     F .text	000005b8 OSFlagPend
02002236 g     O .rwdata	00000002 OSTmrEn
04047ef0 g     F .text	00000018 __fp_unlock_all
020021b0 g     O .rwdata	00000008 alt_fs_list
04052170 g     F .text	00000074 OS_StrCopy
04040f30 g     F .text	000002b8 processEdgeDetection
02002200 g     O .rwdata	00000002 OSMemNameSize
040599d0 g     F .text	00000020 OSInitHookEnd
02002294 g     O .bss	00000004 semLockBaseImgPointer
04040020 g       *ABS*	00000000 __ram_exceptions_start
0200222c g     O .rwdata	00000002 OSTCBPrioTblMax
04048a50 g     F .text	0000000c localeconv
02002228 g     O .rwdata	00000002 OSTaskStatStkChkEn
0404fa24 g     F .text	00000050 alt_ic_isr_register
020021fc g     O .rwdata	00000002 OSMemEn
02002206 g     O .rwdata	00000002 OSMutexEn
02002254 g       *ABS*	00000000 _edata
02015688 g       *ABS*	00000000 _end
02002318 g     O .bss	00000001 OSIntNesting
0404c030 g     F .text	00000164 __fputwc
04040244 g       *ABS*	00000000 __ram_exceptions_end
04058638 g     F .text	000000f0 altera_avalon_jtag_uart_ioctl
04057c20 g     F .text	000001d4 OSTimeDlyResume
04053010 g     F .text	0000014c OSFlagNameSet
04041f34 g     F .text	00000218 imageTwoTask
02002254 g     O .bss	00000001 flipImgFlags
04057490 g     F .text	000001c0 OSTaskStkChk
0404fafc g     F .text	0000008c alt_ic_irq_disable
02002202 g     O .rwdata	00000002 OSMemSize
0404a5b0 g     F .text	0000007c __swrite
0200219c g     O .rwdata	00000004 __malloc_trim_threshold
04048a18 g     F .text	0000000c __locale_msgcharset
0200231c g     O .bss	00000004 OSTCBCur
04059d4c g     F .text	00000038 exit
02002204 g     O .rwdata	00000002 OSMemTblSize
040488bc g     F .text	000000c4 _fwalk_reent
040498a8 g     F .text	000001fc __mdiff
04042f3c g     F .text	00000074 .hidden __modsi3
04000000 g       *ABS*	00000000 __alt_data_end
04040020 g     F .exceptions	00000000 alt_exception
04047ecc g     F .text	00000004 __sfp_lock_release
0200e364 g     O .bss	00002000 mainTask_stk
04050f5c g     F .text	00000058 OSInit
04057834 g     F .text	00000124 OSTaskQuery
04055754 g     F .text	000000a8 OS_QInit
040521e4 g     F .text	00000054 OS_StrLen
04054358 g     F .text	00000114 OSMemNameSet
0200221e g     O .rwdata	00000002 OSTaskProfileEn
02002320 g     O .bss	00000004 OSTime
02010364 g     O .bss	00002000 buttonManagerTask_stk
02013de4 g     O .bss	00000800 OSTaskIdleStk
0404257c g     F .text	00000040 buttonManagerTask
0405a098 g     F .text	00000034 _exit
04058d9c g     F .text	0000012c alt_alarm_start
04052ee8 g     F .text	00000128 OSFlagNameGet
04057df4 g     F .text	0000005c OSTimeGet
04048a5c g     F .text	000001bc __smakebuf_r
04043b7c g     F .text	00000098 strlen
04059950 g     F .text	00000020 OSTaskSwHook
040593c0 g     F .text	00000154 open
02002298 g     O .bss	00000004 semLockFlipImgPointer
020145e4 g     O .bss	00000b40 OSEventTbl
0404e3b4 g     F .text	000000dc .hidden __gedf2
02015124 g     O .bss	00000510 OSTCBTbl
0405615c g     F .text	00000100 OSSemSet
020021ac g     O .rwdata	00000004 __wctomb
0404a868 g     F .text	00000018 __sprint_r
040590b0 g     F .text	00000034 alt_icache_flush_all
020021c8 g     O .rwdata	00000004 alt_priority_mask
0200229c g     O .bss	00000004 semKeyChange
04055984 g     F .text	00000240 OSSemDel
02002324 g     O .bss	00000004 OSFlagFreeList
0404fa74 g     F .text	00000088 alt_ic_irq_enable
020021e4 g     O .rwdata	00000002 OSEventNameSize
04045e0c g     F .text	0000001c __vfprintf_internal
02002328 g     O .bss	00000001 OSStatRdy
02015634 g     O .bss	00000054 OSTCBPrioTbl
0404c68c g     F .text	0000005c _wctomb_r
040503dc g     F .text	000000c4 __env_lock
0200222a g     O .rwdata	00000002 OSTaskSwHookEn
0404ec9c g     F .text	000008fc .hidden __subdf3
040492dc g     F .text	000000b0 __lo0bits
0200224c g     O .rwdata	00000008 alt_alarm_list
020021f2 g     O .rwdata	00000002 OSFlagWidth
04058ff0 g     F .text	00000060 _do_ctors
0404c59c g     F .text	000000c0 wcrtomb
0404f83c g     F .text	000000d0 close
020022d4 g     O .bss	00000004 alt_envsem
0200232c g     O .bss	00000004 OSIdleCtrRun
04041be4 g     F .text	000000a4 imgToPtr
040515a0 g     F .text	00000020 OSVersion
0200223c g     O .rwdata	00000002 OSTmrCfgWheelSize
0404fe0c g     F .text	00000084 alt_load
04057958 g     F .text	00000070 OS_TaskStkClr
04040000 g       *ABS*	00000000 __alt_mem_NIOS_MEM
02002216 g     O .rwdata	00000002 OSTaskCreateEn
04051b90 g     F .text	00000068 OS_EventWaitListInit
0404c1b8 g     F .text	00000080 fputwc
040599f0 g     F .text	00000020 OSTaskIdleHook
04043080 g     F .text	00000014 free
04047ed0 g     F .text	00000004 __sinit_lock_acquire
04049050 g     F .text	00000120 __multadd
04057650 g     F .text	000001e4 OSTaskSuspend
04049028 g     F .text	00000028 _Bfree
04052238 g     F .text	0000005c OS_TaskIdle
02002242 g     O .rwdata	00000002 OSTmrTblSize
040555f8 g     F .text	0000015c OSQQuery
040411e8 g     F .text	000003c4 fastEdgeDetection



Disassembly of section .entry:

04040000 <__reset>:
#if NIOS2_ICACHE_SIZE > 0 && defined(ALT_ALLOW_CODE_AT_RESET) && (!defined(ALT_SIM_OPTIMIZE) || defined(NIOS2_ECC_PRESENT))
    /* Assume the instruction cache size is always a power of two. */
#if NIOS2_ICACHE_SIZE > 0x8000
    movhi r2, %hi(NIOS2_ICACHE_SIZE)
#else
    movui r2, NIOS2_ICACHE_SIZE
 4040000:	00840014 	movui	r2,4096
#endif

0:
    initi r2
 4040004:	1001483a 	initi	r2
    addi r2, r2, -NIOS2_ICACHE_LINE_SIZE
 4040008:	10bff804 	addi	r2,r2,-32
    bgt r2, zero, 0b
 404000c:	00bffd16 	blt	zero,r2,4040004 <__flash_rwdata_start+0xfffe58d4>
 * Jump to the _start entry point in the .text section if reset code
 * is allowed or if optimizing for RTL simulation.
 */
#if defined(ALT_ALLOW_CODE_AT_RESET) || defined(ALT_SIM_OPTIMIZE)
    /* Jump to the _start entry point in the .text section. */
    movhi r1, %hi(_start)
 4040010:	00410134 	movhi	at,1028
    ori r1, r1, %lo(_start)
 4040014:	08409114 	ori	at,at,580
    jmp r1
 4040018:	0800683a 	jmp	at
 404001c:	00000000 	call	0 <__alt_mem_SDRAM>

Disassembly of section .exceptions:

04040020 <alt_exception>:

#else /* ALT_EXCEPTION_STACK disabled */
        /* 
         * Reserve space on normal stack for registers about to be pushed.
         */
        addi  sp, sp, -76
 4040020:	deffed04 	addi	sp,sp,-76
         * documentation for details).
         *
         * Leave a gap in the stack frame at 4(sp) for the muldiv handler to
         * store zero into.
         */
        stw   ra,  0(sp)
 4040024:	dfc00015 	stw	ra,0(sp)
        stw   r1,   8(sp)
 4040028:	d8400215 	stw	at,8(sp)
        stw   r2,  12(sp)
 404002c:	d8800315 	stw	r2,12(sp)
        stw   r3,  16(sp)
 4040030:	d8c00415 	stw	r3,16(sp)
        stw   r4,  20(sp)
 4040034:	d9000515 	stw	r4,20(sp)
        stw   r5,  24(sp)
 4040038:	d9400615 	stw	r5,24(sp)
        stw   r6,  28(sp)
 404003c:	d9800715 	stw	r6,28(sp)
        stw   r7,  32(sp)
 4040040:	d9c00815 	stw	r7,32(sp)
        rdctl r5, estatus   /* Read early to avoid usage stall */
 4040044:	000b307a 	rdctl	r5,estatus
        stw   r8,  36(sp)
 4040048:	da000915 	stw	r8,36(sp)
        stw   r9,  40(sp)
 404004c:	da400a15 	stw	r9,40(sp)
        stw   r10, 44(sp)
 4040050:	da800b15 	stw	r10,44(sp)
        stw   r11, 48(sp)
 4040054:	dac00c15 	stw	r11,48(sp)
        stw   r12, 52(sp)
 4040058:	db000d15 	stw	r12,52(sp)
        stw   r13, 56(sp)
 404005c:	db400e15 	stw	r13,56(sp)
        stw   r14, 60(sp)
 4040060:	db800f15 	stw	r14,60(sp)
        stw   r15, 64(sp)
 4040064:	dbc01015 	stw	r15,64(sp)
        /*
         * ea-4 contains the address of the instruction being executed
         * when the exception occured. For interrupt exceptions, we will
         * will be re-issue the isntruction. Store it in 72(sp)
         */
        stw   r5,  68(sp)  /* estatus */
 4040068:	d9401115 	stw	r5,68(sp)
        addi  r15, ea, -4  /* instruction that caused exception */
 404006c:	ebffff04 	addi	r15,ea,-4
        stw   r15,  72(sp)
 4040070:	dbc01215 	stw	r15,72(sp)
#else
        /*
         * Test to see if the exception was a software exception or caused 
         * by an external interrupt, and vector accordingly.
         */
        rdctl r4, ipending
 4040074:	0009313a 	rdctl	r4,ipending
        andi  r2, r5, 1
 4040078:	2880004c 	andi	r2,r5,1
        beq   r2, zero, .Lnot_irq
 404007c:	10000326 	beq	r2,zero,404008c <alt_exception+0x6c>
        beq   r4, zero, .Lnot_irq
 4040080:	20000226 	beq	r4,zero,404008c <alt_exception+0x6c>
        /*
         * Now that all necessary registers have been preserved, call 
         * alt_irq_handler() to process the interrupts.
         */

        call alt_irq_handler
 4040084:	40400fc0 	call	40400fc <alt_irq_handler>

        .section .exceptions.irqreturn, "xa"

        br    .Lexception_exit
 4040088:	00000706 	br	40400a8 <alt_exception+0x88>
         * upon completion, so we write ea (address of instruction *after*
         * the one where the exception occured) into 72(sp). The actual
         * instruction that caused the exception is written in r2, which these
         * handlers will utilize.
         */
        stw ea, 72(sp) /* EA is PC+4 so will skip over instruction causing exception */
 404008c:	df401215 	stw	ea,72(sp)
.Lunknown_16bit:
        addi.n r4, r4, 2 /* Need PC+2 to skip over instruction causing exception */
        stw r4, 72(sp)

#else /* CDX is not Enabled and all instructions are 32bits */
        ldw r2, -4(ea) /* Instruction value that caused exception */
 4040090:	e8bfff17 	ldw	r2,-4(ea)
         * debugger is present) or go into an infinite loop since the
         * handling behavior is undefined; in that case we will not return here.
         */

        /* Load exception-causing address as first argument (r4) */
        addi   r4, ea, -4
 4040094:	e93fff04 	addi	r4,ea,-4

        /* Call the instruction-exception entry */
        call   alt_instruction_exception_entry
 4040098:	40401d00 	call	40401d0 <alt_instruction_exception_entry>
         * instruction
         *
         * Return code was 0: Skip. The instruction after the exception is
         * already stored in 72(sp).
         */
        bne   r2, r0, .Lexception_exit
 404009c:	1000021e 	bne	r2,zero,40400a8 <alt_exception+0x88>

        /*
         * Otherwise, modify 72(sp) to re-issue the instruction that caused the
         * exception.
         */
        addi  r15, ea, -4  /* instruction that caused exception */
 40400a0:	ebffff04 	addi	r15,ea,-4
        stw   r15,  72(sp)
 40400a4:	dbc01215 	stw	r15,72(sp)
        /* 
         * Restore the saved registers, so that all general purpose registers 
         * have been restored to their state at the time the interrupt occured.
         */

        ldw   r5,  68(sp)
 40400a8:	d9401117 	ldw	r5,68(sp)
        ldw   ea,  72(sp)  /* This becomes the PC once eret is executed */
 40400ac:	df401217 	ldw	ea,72(sp)
        ldw   ra,   0(sp)
 40400b0:	dfc00017 	ldw	ra,0(sp)

        wrctl estatus, r5
 40400b4:	2801707a 	wrctl	estatus,r5

        ldw   r1,   8(sp)
 40400b8:	d8400217 	ldw	at,8(sp)
        ldw   r2,  12(sp)
 40400bc:	d8800317 	ldw	r2,12(sp)
        ldw   r3,  16(sp)
 40400c0:	d8c00417 	ldw	r3,16(sp)
        ldw   r4,  20(sp)
 40400c4:	d9000517 	ldw	r4,20(sp)
        ldw   r5,  24(sp)
 40400c8:	d9400617 	ldw	r5,24(sp)
        ldw   r6,  28(sp)
 40400cc:	d9800717 	ldw	r6,28(sp)
        ldw   r7,  32(sp)
 40400d0:	d9c00817 	ldw	r7,32(sp)

#if defined(ALT_EXCEPTION_STACK) && defined(ALT_STACK_CHECK)
        ldw   et, %gprel(alt_exception_old_stack_limit)(gp)
#endif

        ldw   r8,  36(sp)
 40400d4:	da000917 	ldw	r8,36(sp)
        ldw   r9,  40(sp)
 40400d8:	da400a17 	ldw	r9,40(sp)
        ldw   r10, 44(sp)
 40400dc:	da800b17 	ldw	r10,44(sp)
        ldw   r11, 48(sp)
 40400e0:	dac00c17 	ldw	r11,48(sp)
        ldw   r12, 52(sp)
 40400e4:	db000d17 	ldw	r12,52(sp)
        ldw   r13, 56(sp)
 40400e8:	db400e17 	ldw	r13,56(sp)
        ldw   r14, 60(sp)
 40400ec:	db800f17 	ldw	r14,60(sp)
        ldw   r15, 64(sp)
 40400f0:	dbc01017 	ldw	r15,64(sp)
        stw   et, %gprel(alt_stack_limit_value)(gp)
        stw   zero, %gprel(alt_exception_old_stack_limit)(gp)
#endif /* ALT_STACK_CHECK */
        ldw   sp,  76(sp)
#else /* ALT_EXCEPTION_STACK disabled */
        addi  sp, sp, 76
 40400f4:	dec01304 	addi	sp,sp,76

        /*
         * Return to the interrupted instruction.
         */

        eret
 40400f8:	ef80083a 	eret

040400fc <alt_irq_handler>:
 * instruction is present if the macro ALT_CI_INTERRUPT_VECTOR defined.
 */

void alt_irq_handler (void) __attribute__ ((section (".exceptions")));
void alt_irq_handler (void)
{
 40400fc:	defff904 	addi	sp,sp,-28
 4040100:	dfc00615 	stw	ra,24(sp)
 4040104:	df000515 	stw	fp,20(sp)
 4040108:	df000504 	addi	fp,sp,20
  
  /*
   * Notify the operating system that we are at interrupt level.
   */ 
  
  ALT_OS_INT_ENTER();
 404010c:	4050fb40 	call	4050fb4 <OSIntEnter>
#ifndef NIOS2_EIC_PRESENT
static ALT_INLINE alt_u32 ALT_ALWAYS_INLINE alt_irq_pending (void)
{
  alt_u32 active;

  NIOS2_READ_IPENDING (active);
 4040110:	0005313a 	rdctl	r2,ipending
 4040114:	e0bffe15 	stw	r2,-8(fp)

  return active;
 4040118:	e0bffe17 	ldw	r2,-8(fp)
   * Consider the case where the high priority interupt is asserted during
   * the interrupt entry sequence for a lower priority interrupt to see why
   * this is the case.
   */

  active = alt_irq_pending ();
 404011c:	e0bffb15 	stw	r2,-20(fp)

  do
  {
    i = 0;
 4040120:	e03ffd15 	stw	zero,-12(fp)
    mask = 1;
 4040124:	00800044 	movi	r2,1
 4040128:	e0bffc15 	stw	r2,-16(fp)
     * called to clear the interrupt condition.
     */

    do
    {
      if (active & mask)
 404012c:	e0fffb17 	ldw	r3,-20(fp)
 4040130:	e0bffc17 	ldw	r2,-16(fp)
 4040134:	1884703a 	and	r2,r3,r2
 4040138:	10001426 	beq	r2,zero,404018c <alt_irq_handler+0x90>
      { 
#ifdef ALT_ENHANCED_INTERRUPT_API_PRESENT
        alt_irq[i].handler(alt_irq[i].context); 
 404013c:	00808074 	movhi	r2,513
 4040140:	1088d904 	addi	r2,r2,9060
 4040144:	e0fffd17 	ldw	r3,-12(fp)
 4040148:	180690fa 	slli	r3,r3,3
 404014c:	10c5883a 	add	r2,r2,r3
 4040150:	10c00017 	ldw	r3,0(r2)
 4040154:	00808074 	movhi	r2,513
 4040158:	1088d904 	addi	r2,r2,9060
 404015c:	e13ffd17 	ldw	r4,-12(fp)
 4040160:	200890fa 	slli	r4,r4,3
 4040164:	1105883a 	add	r2,r2,r4
 4040168:	10800104 	addi	r2,r2,4
 404016c:	10800017 	ldw	r2,0(r2)
 4040170:	1009883a 	mov	r4,r2
 4040174:	183ee83a 	callr	r3
#else
        alt_irq[i].handler(alt_irq[i].context, i); 
#endif
        break;
 4040178:	0001883a 	nop
#ifndef NIOS2_EIC_PRESENT
static ALT_INLINE alt_u32 ALT_ALWAYS_INLINE alt_irq_pending (void)
{
  alt_u32 active;

  NIOS2_READ_IPENDING (active);
 404017c:	0005313a 	rdctl	r2,ipending
 4040180:	e0bfff15 	stw	r2,-4(fp)

  return active;
 4040184:	e0bfff17 	ldw	r2,-4(fp)
 4040188:	00000706 	br	40401a8 <alt_irq_handler+0xac>
      }
      mask <<= 1;
 404018c:	e0bffc17 	ldw	r2,-16(fp)
 4040190:	1085883a 	add	r2,r2,r2
 4040194:	e0bffc15 	stw	r2,-16(fp)
      i++;
 4040198:	e0bffd17 	ldw	r2,-12(fp)
 404019c:	10800044 	addi	r2,r2,1
 40401a0:	e0bffd15 	stw	r2,-12(fp)

    } while (1);
 40401a4:	003fe106 	br	404012c <__flash_rwdata_start+0xfffe59fc>

    active = alt_irq_pending ();
 40401a8:	e0bffb15 	stw	r2,-20(fp)
    
  } while (active);
 40401ac:	e0bffb17 	ldw	r2,-20(fp)
 40401b0:	103fdb1e 	bne	r2,zero,4040120 <__flash_rwdata_start+0xfffe59f0>

  /*
   * Notify the operating system that interrupt processing is complete.
   */ 

  ALT_OS_INT_EXIT();
 40401b4:	40510000 	call	4051000 <OSIntExit>
}
 40401b8:	0001883a 	nop
 40401bc:	e037883a 	mov	sp,fp
 40401c0:	dfc00117 	ldw	ra,4(sp)
 40401c4:	df000017 	ldw	fp,0(sp)
 40401c8:	dec00204 	addi	sp,sp,8
 40401cc:	f800283a 	ret

040401d0 <alt_instruction_exception_entry>:
 * that handler if it has been registered. Absent a handler, it will
 * break break or hang as discussed below.
 */
int 
alt_instruction_exception_entry (alt_u32 exception_pc)
{
 40401d0:	defffb04 	addi	sp,sp,-20
 40401d4:	dfc00415 	stw	ra,16(sp)
 40401d8:	df000315 	stw	fp,12(sp)
 40401dc:	df000304 	addi	fp,sp,12
 40401e0:	e13fff15 	stw	r4,-4(fp)
 * NIOS2_EXCEPTION_CAUSE_NOT_PRESENT. Your handling routine should
 * check the validity of the cause argument before proceeding.
 */
#ifdef NIOS2_HAS_EXTRA_EXCEPTION_INFO
  /* Get exception cause & "badaddr" */
  NIOS2_READ_EXCEPTION(cause);
 40401e4:	000531fa 	rdctl	r2,exception
 40401e8:	e0bffd15 	stw	r2,-12(fp)
  cause = ( (cause & NIOS2_EXCEPTION_REG_CAUSE_MASK) >>
 40401ec:	e0bffd17 	ldw	r2,-12(fp)
 40401f0:	10801f0c 	andi	r2,r2,124
 40401f4:	1004d0ba 	srli	r2,r2,2
 40401f8:	e0bffd15 	stw	r2,-12(fp)
              NIOS2_EXCEPTION_REG_CAUSE_OFST );

  NIOS2_READ_BADADDR(badaddr);
 40401fc:	0005333a 	rdctl	r2,badaddr
 4040200:	e0bffe15 	stw	r2,-8(fp)
#else
  cause = NIOS2_EXCEPTION_CAUSE_NOT_PRESENT;
  badaddr = 0;
#endif /* NIOS2_HAS_EXTRA_EXCEPTION_INFO */

  if(alt_instruction_exception_handler) {
 4040204:	d0a06617 	ldw	r2,-32360(gp)
 4040208:	10000726 	beq	r2,zero,4040228 <alt_instruction_exception_entry+0x58>
     * Call handler. Its return value indicates whether the exception-causing
     * instruction should be re-issued. The code that called us,
     * alt_eceptions_entry.S, will look at this value and adjust the ea
     * register as necessary
     */
    return alt_instruction_exception_handler(cause, exception_pc, badaddr);
 404020c:	d0a06617 	ldw	r2,-32360(gp)
 4040210:	e0fffd17 	ldw	r3,-12(fp)
 4040214:	e1bffe17 	ldw	r6,-8(fp)
 4040218:	e17fff17 	ldw	r5,-4(fp)
 404021c:	1809883a 	mov	r4,r3
 4040220:	103ee83a 	callr	r2
 4040224:	00000206 	br	4040230 <alt_instruction_exception_entry+0x60>
   *    (a peripheral which negates its interrupt output before its
   *    interrupt handler has been executed will cause spurious interrupts)
   */
  else {
#ifdef NIOS2_HAS_DEBUG_STUB
    NIOS2_BREAK();
 4040228:	003da03a 	break	0
      ;
#endif /* NIOS2_HAS_DEBUG_STUB */
  }

  /* We should not get here. Remove compiler warning. */
  return NIOS2_EXCEPTION_RETURN_REISSUE_INST;
 404022c:	0005883a 	mov	r2,zero
}
 4040230:	e037883a 	mov	sp,fp
 4040234:	dfc00117 	ldw	ra,4(sp)
 4040238:	df000017 	ldw	fp,0(sp)
 404023c:	dec00204 	addi	sp,sp,8
 4040240:	f800283a 	ret

Disassembly of section .text:

04040244 <_start>:

    /* Assume the data cache size is always a power of two. */
#if NIOS2_DCACHE_SIZE > 0x8000
    movhi r2, %hi(NIOS2_DCACHE_SIZE)
#else
    movui r2, NIOS2_DCACHE_SIZE
 4040244:	00820014 	movui	r2,2048
#endif

0:
    initd 0(r2)
 4040248:	10000033 	initd	0(r2)
#ifdef NIOS2_ECC_PRESENT
    addi r2, r2, -4
#else
    addi r2, r2, -NIOS2_DCACHE_LINE_SIZE
 404024c:	10bff804 	addi	r2,r2,-32
#endif
    bgt r2, zero, 0b
 4040250:	00bffd16 	blt	zero,r2,4040248 <__flash_rwdata_start+0xfffe5b18>

    /*
     * Now that the caches are initialized, set up the stack pointer and global pointer.
     * The values provided by the linker are assumed to be correctly aligned.
     */
    movhi sp, %hi(__alt_stack_pointer)
 4040254:	06c10034 	movhi	sp,1024
    ori sp, sp, %lo(__alt_stack_pointer)
 4040258:	dec00014 	ori	sp,sp,0
    movhi gp, %hi(_gp)
 404025c:	06808034 	movhi	gp,512
    ori gp, gp, %lo(_gp)
 4040260:	d6a86614 	ori	gp,gp,41368
 */
#ifndef ALT_SIM_OPTIMIZE
    /* Log that the BSS is about to be cleared. */
    ALT_LOG_PUTS(alt_log_msg_bss)

    movhi r2, %hi(__bss_start)
 4040264:	00808034 	movhi	r2,512
    ori r2, r2, %lo(__bss_start)
 4040268:	10889514 	ori	r2,r2,8788

    movhi r3, %hi(__bss_end)
 404026c:	00c08074 	movhi	r3,513
    ori r3, r3, %lo(__bss_end)
 4040270:	18d5a214 	ori	r3,r3,22152

    beq r2, r3, 1f
 4040274:	10c00326 	beq	r2,r3,4040284 <_start+0x40>

0:
    stw zero, (r2)
 4040278:	10000015 	stw	zero,0(r2)
    addi r2, r2, 4
 404027c:	10800104 	addi	r2,r2,4
    bltu r2, r3, 0b
 4040280:	10fffd36 	bltu	r2,r3,4040278 <__flash_rwdata_start+0xfffe5b48>
     * section aren't defined until alt_load() has been called).
     */
    mov   et, zero
#endif

    call alt_load
 4040284:	404fe0c0 	call	404fe0c <alt_load>

    /* Log that alt_main is about to be called. */
    ALT_LOG_PUTS(alt_log_msg_alt_main)

    /* Call the C entry point. It should never return. */
    call alt_main
 4040288:	404ffa00 	call	404ffa0 <alt_main>

0404028c <alt_after_alt_main>:

    /* Wait in infinite loop in case alt_main does return. */
alt_after_alt_main:
    br alt_after_alt_main
 404028c:	003fff06 	br	404028c <__flash_rwdata_start+0xfffe5b5c>

04040290 <clrBuffer>:
/*
 *  clrBuffer()
 *  Clears the pixel buffer. Used to clear screen
 *  when processor restarts/program initialises
 */
void clrBuffer() {
 4040290:	defffe04 	addi	sp,sp,-8
 4040294:	df000115 	stw	fp,4(sp)
 4040298:	df000104 	addi	fp,sp,4
	for (int i = 0; i < BUF_MAX_PIX; i++) {
 404029c:	e03fff15 	stw	zero,-4(fp)
 40402a0:	00001306 	br	40402f0 <clrBuffer+0x60>
		  // Set Buffer Address
		  IOWR_32DIRECT(PB_ADR_BASE,0,i);
 40402a4:	00810234 	movhi	r2,1032
 40402a8:	10842004 	addi	r2,r2,4224
 40402ac:	e0ffff17 	ldw	r3,-4(fp)
 40402b0:	10c00035 	stwio	r3,0(r2)
		  // Enable Writing
		  IOWR_32DIRECT(PBUFF_WREN_BASE,0,1);
 40402b4:	00c00044 	movi	r3,1
 40402b8:	00810234 	movhi	r2,1032
 40402bc:	10841804 	addi	r2,r2,4192
 40402c0:	10c00035 	stwio	r3,0(r2)
		  // Write Data
		  IOWR_32DIRECT(PB_DATA_BASE,0,0);
 40402c4:	0007883a 	mov	r3,zero
 40402c8:	00810234 	movhi	r2,1032
 40402cc:	10841c04 	addi	r2,r2,4208
 40402d0:	10c00035 	stwio	r3,0(r2)
		  // Disable writing
		  IOWR_32DIRECT(PBUFF_WREN_BASE,0,0);
 40402d4:	0007883a 	mov	r3,zero
 40402d8:	00810234 	movhi	r2,1032
 40402dc:	10841804 	addi	r2,r2,4192
 40402e0:	10c00035 	stwio	r3,0(r2)
 *  clrBuffer()
 *  Clears the pixel buffer. Used to clear screen
 *  when processor restarts/program initialises
 */
void clrBuffer() {
	for (int i = 0; i < BUF_MAX_PIX; i++) {
 40402e4:	e0bfff17 	ldw	r2,-4(fp)
 40402e8:	10800044 	addi	r2,r2,1
 40402ec:	e0bfff15 	stw	r2,-4(fp)
 40402f0:	e0bfff17 	ldw	r2,-4(fp)
 40402f4:	1092c010 	cmplti	r2,r2,19200
 40402f8:	103fea1e 	bne	r2,zero,40402a4 <__flash_rwdata_start+0xfffe5b74>
		  // Write Data
		  IOWR_32DIRECT(PB_DATA_BASE,0,0);
		  // Disable writing
		  IOWR_32DIRECT(PBUFF_WREN_BASE,0,0);
	  }
	return;
 40402fc:	0001883a 	nop
}
 4040300:	e037883a 	mov	sp,fp
 4040304:	df000017 	ldw	fp,0(sp)
 4040308:	dec00104 	addi	sp,sp,4
 404030c:	f800283a 	ret

04040310 <writeImage>:
 * Writes the images in SDRAM to the pixel buffer
 * Uses the 2 LSBs to determine if the image should
 * be flipped when it is drawn
 * 0x1 is x flip, 0x2 is y flip
 */
void writeImage(char flipFlags) {
 4040310:	defff304 	addi	sp,sp,-52
 4040314:	df000c15 	stw	fp,48(sp)
 4040318:	df000c04 	addi	fp,sp,48
 404031c:	2005883a 	mov	r2,r4
 4040320:	e0bfff05 	stb	r2,-4(fp)
	// Setup Draw Params
	int heightAddr = BUF_LAST_ROW_ADDR-1;
 4040324:	009297c4 	movi	r2,19039
 4040328:	e0bff715 	stw	r2,-36(fp)

	// Setup Temp Data variables
	int data1;
	int data2;
	char xFlipped = (flipFlags & 0x1) != 0;
 404032c:	e0bfff03 	ldbu	r2,-4(fp)
 4040330:	10803fcc 	andi	r2,r2,255
 4040334:	1080004c 	andi	r2,r2,1
 4040338:	1004c03a 	cmpne	r2,r2,zero
 404033c:	e0bff805 	stb	r2,-32(fp)
	char yFlipped = (flipFlags & 0x2) != 0;
 4040340:	e0bfff03 	ldbu	r2,-4(fp)
 4040344:	10803fcc 	andi	r2,r2,255
 4040348:	1080008c 	andi	r2,r2,2
 404034c:	1004c03a 	cmpne	r2,r2,zero
 4040350:	e0bff845 	stb	r2,-31(fp)
	// To correct this we check if the image is requested to be
	// flipped in y only. If it is we flip the x direction back
	// to correct for the errant x flip.
	// If y is not needed to be flipped, we only flip if x needs
	// to be flipped
	char performXFlip = yFlipped ? xFlipped^yFlipped : xFlipped;
 4040354:	e0bff847 	ldb	r2,-31(fp)
 4040358:	10000426 	beq	r2,zero,404036c <writeImage+0x5c>
 404035c:	e0fff803 	ldbu	r3,-32(fp)
 4040360:	e0bff843 	ldbu	r2,-31(fp)
 4040364:	1884f03a 	xor	r2,r3,r2
 4040368:	00000106 	br	4040370 <writeImage+0x60>
 404036c:	e0bff803 	ldbu	r2,-32(fp)
 4040370:	e0bff885 	stb	r2,-30(fp)

	// Define Base For Flip and add offset if required
	int base = 0;
 4040374:	e03ff415 	stw	zero,-48(fp)
	if (yFlipped) {
 4040378:	e0bff847 	ldb	r2,-31(fp)
 404037c:	10000426 	beq	r2,zero,4040390 <writeImage+0x80>
		base += heightAddr;
 4040380:	e0fff417 	ldw	r3,-48(fp)
 4040384:	e0bff717 	ldw	r2,-36(fp)
 4040388:	1885883a 	add	r2,r3,r2
 404038c:	e0bff415 	stw	r2,-48(fp)
	int readOffset2;
	int pixelAddr1;
	int pixelAddr2;

	// Loop to draw the image to the screen
	for (int i = 0; i < heightAddr; i = i + IMG_WIDTH) {
 4040390:	e03ff515 	stw	zero,-44(fp)
 4040394:	00005d06 	br	404050c <writeImage+0x1fc>
		for (int j = 0; j < IMG_WIDTH/2; j++){
 4040398:	e03ff615 	stw	zero,-40(fp)
 404039c:	00005506 	br	40404f4 <writeImage+0x1e4>
			// Offset read directions
			// offset1 ----->	<----- offset 2 //
			readOffset1 = i+j;
 40403a0:	e0fff517 	ldw	r3,-44(fp)
 40403a4:	e0bff617 	ldw	r2,-40(fp)
 40403a8:	1885883a 	add	r2,r3,r2
 40403ac:	e0bff915 	stw	r2,-28(fp)
			readOffset2 = i + IMG_WIDTH - j - 1;
 40403b0:	e0bff517 	ldw	r2,-44(fp)
 40403b4:	10c02804 	addi	r3,r2,160
 40403b8:	e0bff617 	ldw	r2,-40(fp)
 40403bc:	1885c83a 	sub	r2,r3,r2
 40403c0:	10bfffc4 	addi	r2,r2,-1
 40403c4:	e0bffa15 	stw	r2,-24(fp)

			// Calculate which pixel to read
			pixelAddr1 = base+readOffset1*(yFlipped ? -1 : 1);
 40403c8:	e0bff847 	ldb	r2,-31(fp)
 40403cc:	10000226 	beq	r2,zero,40403d8 <writeImage+0xc8>
 40403d0:	00bfffc4 	movi	r2,-1
 40403d4:	00000106 	br	40403dc <writeImage+0xcc>
 40403d8:	00800044 	movi	r2,1
 40403dc:	e0fff917 	ldw	r3,-28(fp)
 40403e0:	10c7383a 	mul	r3,r2,r3
 40403e4:	e0bff417 	ldw	r2,-48(fp)
 40403e8:	1885883a 	add	r2,r3,r2
 40403ec:	e0bffb15 	stw	r2,-20(fp)
			pixelAddr2 = base+readOffset2*(yFlipped ? -1 : 1);
 40403f0:	e0bff847 	ldb	r2,-31(fp)
 40403f4:	10000226 	beq	r2,zero,4040400 <writeImage+0xf0>
 40403f8:	00bfffc4 	movi	r2,-1
 40403fc:	00000106 	br	4040404 <writeImage+0xf4>
 4040400:	00800044 	movi	r2,1
 4040404:	e0fffa17 	ldw	r3,-24(fp)
 4040408:	10c7383a 	mul	r3,r2,r3
 404040c:	e0bff417 	ldw	r2,-48(fp)
 4040410:	1885883a 	add	r2,r3,r2
 4040414:	e0bffc15 	stw	r2,-16(fp)

			// Get the data from this pixel addresses above
			data1 = IORD_32DIRECT(SDRAM_BASEADDR,readOffset1*4)>>24;
 4040418:	e0bff917 	ldw	r2,-28(fp)
 404041c:	1085883a 	add	r2,r2,r2
 4040420:	1085883a 	add	r2,r2,r2
 4040424:	10800037 	ldwio	r2,0(r2)
 4040428:	1005d63a 	srai	r2,r2,24
 404042c:	e0bffd15 	stw	r2,-12(fp)
			data2 = IORD_32DIRECT(SDRAM_BASEADDR,readOffset2*4)>>24;
 4040430:	e0bffa17 	ldw	r2,-24(fp)
 4040434:	1085883a 	add	r2,r2,r2
 4040438:	1085883a 	add	r2,r2,r2
 404043c:	10800037 	ldwio	r2,0(r2)
 4040440:	1005d63a 	srai	r2,r2,24
 4040444:	e0bffe15 	stw	r2,-8(fp)

			// Write the first pixel to the correct location in the buffer
			IOWR_32DIRECT(PB_ADR_BASE,0,(performXFlip ? pixelAddr2 : pixelAddr1));
 4040448:	e0bff887 	ldb	r2,-30(fp)
 404044c:	10000226 	beq	r2,zero,4040458 <writeImage+0x148>
 4040450:	e0fffc17 	ldw	r3,-16(fp)
 4040454:	00000106 	br	404045c <writeImage+0x14c>
 4040458:	e0fffb17 	ldw	r3,-20(fp)
 404045c:	00810234 	movhi	r2,1032
 4040460:	10842004 	addi	r2,r2,4224
 4040464:	10c00035 	stwio	r3,0(r2)
			IOWR_32DIRECT(PBUFF_WREN_BASE,0,1);
 4040468:	00c00044 	movi	r3,1
 404046c:	00810234 	movhi	r2,1032
 4040470:	10841804 	addi	r2,r2,4192
 4040474:	10c00035 	stwio	r3,0(r2)
			IOWR_32DIRECT(PB_DATA_BASE,0,data1);
 4040478:	00810234 	movhi	r2,1032
 404047c:	10841c04 	addi	r2,r2,4208
 4040480:	e0fffd17 	ldw	r3,-12(fp)
 4040484:	10c00035 	stwio	r3,0(r2)
			IOWR_32DIRECT(PBUFF_WREN_BASE,0,0);
 4040488:	0007883a 	mov	r3,zero
 404048c:	00810234 	movhi	r2,1032
 4040490:	10841804 	addi	r2,r2,4192
 4040494:	10c00035 	stwio	r3,0(r2)

			// Write the first pixel to the correct location in the buffer
			IOWR_32DIRECT(PB_ADR_BASE,0,(performXFlip ? pixelAddr1 : pixelAddr2));
 4040498:	e0bff887 	ldb	r2,-30(fp)
 404049c:	10000226 	beq	r2,zero,40404a8 <writeImage+0x198>
 40404a0:	e0fffb17 	ldw	r3,-20(fp)
 40404a4:	00000106 	br	40404ac <writeImage+0x19c>
 40404a8:	e0fffc17 	ldw	r3,-16(fp)
 40404ac:	00810234 	movhi	r2,1032
 40404b0:	10842004 	addi	r2,r2,4224
 40404b4:	10c00035 	stwio	r3,0(r2)
			IOWR_32DIRECT(PBUFF_WREN_BASE,0,1);
 40404b8:	00c00044 	movi	r3,1
 40404bc:	00810234 	movhi	r2,1032
 40404c0:	10841804 	addi	r2,r2,4192
 40404c4:	10c00035 	stwio	r3,0(r2)
			IOWR_32DIRECT(PB_DATA_BASE,0,data2);
 40404c8:	00810234 	movhi	r2,1032
 40404cc:	10841c04 	addi	r2,r2,4208
 40404d0:	e0fffe17 	ldw	r3,-8(fp)
 40404d4:	10c00035 	stwio	r3,0(r2)
			IOWR_32DIRECT(PBUFF_WREN_BASE,0,0);
 40404d8:	0007883a 	mov	r3,zero
 40404dc:	00810234 	movhi	r2,1032
 40404e0:	10841804 	addi	r2,r2,4192
 40404e4:	10c00035 	stwio	r3,0(r2)
	int pixelAddr1;
	int pixelAddr2;

	// Loop to draw the image to the screen
	for (int i = 0; i < heightAddr; i = i + IMG_WIDTH) {
		for (int j = 0; j < IMG_WIDTH/2; j++){
 40404e8:	e0bff617 	ldw	r2,-40(fp)
 40404ec:	10800044 	addi	r2,r2,1
 40404f0:	e0bff615 	stw	r2,-40(fp)
 40404f4:	e0bff617 	ldw	r2,-40(fp)
 40404f8:	10801410 	cmplti	r2,r2,80
 40404fc:	103fa81e 	bne	r2,zero,40403a0 <__flash_rwdata_start+0xfffe5c70>
	int readOffset2;
	int pixelAddr1;
	int pixelAddr2;

	// Loop to draw the image to the screen
	for (int i = 0; i < heightAddr; i = i + IMG_WIDTH) {
 4040500:	e0bff517 	ldw	r2,-44(fp)
 4040504:	10802804 	addi	r2,r2,160
 4040508:	e0bff515 	stw	r2,-44(fp)
 404050c:	e0fff517 	ldw	r3,-44(fp)
 4040510:	e0bff717 	ldw	r2,-36(fp)
 4040514:	18bfa016 	blt	r3,r2,4040398 <__flash_rwdata_start+0xfffe5c68>
			IOWR_32DIRECT(PBUFF_WREN_BASE,0,1);
			IOWR_32DIRECT(PB_DATA_BASE,0,data2);
			IOWR_32DIRECT(PBUFF_WREN_BASE,0,0);
		}
	}
	return;
 4040518:	0001883a 	nop
}
 404051c:	e037883a 	mov	sp,fp
 4040520:	df000017 	ldw	fp,0(sp)
 4040524:	dec00104 	addi	sp,sp,4
 4040528:	f800283a 	ret

0404052c <KEY_IN_ISR>:
 * Currently just checks which button was pressed,
 * updates the global flip flag accordingly and then
 * redraws the image to the screen
 */
void KEY_IN_ISR(void * isr_context, alt_u32 id)
{
 404052c:	defffa04 	addi	sp,sp,-24
 4040530:	dfc00515 	stw	ra,20(sp)
 4040534:	df000415 	stw	fp,16(sp)
 4040538:	df000404 	addi	fp,sp,16
 404053c:	e13ffe15 	stw	r4,-8(fp)
 4040540:	e17fff15 	stw	r5,-4(fp)
	// Retrieve the memory address to store the edge capture data
	volatile int* keyEdgeCapturePtr = (volatile int*) isr_context;
 4040544:	e0bffe17 	ldw	r2,-8(fp)
 4040548:	e0bffc15 	stw	r2,-16(fp)
	// Get edge capture data
	*keyEdgeCapturePtr = IORD_ALTERA_AVALON_PIO_EDGE_CAP(KEY_IN_BASE);
 404054c:	00810234 	movhi	r2,1032
 4040550:	10842704 	addi	r2,r2,4252
 4040554:	10c00037 	ldwio	r3,0(r2)
 4040558:	e0bffc17 	ldw	r2,-16(fp)
 404055c:	10c00015 	stw	r3,0(r2)
	// Write to the edge capture register to reset it.
	IOWR_ALTERA_AVALON_PIO_EDGE_CAP(KEY_IN_BASE, 0);
 4040560:	0007883a 	mov	r3,zero
 4040564:	00810234 	movhi	r2,1032
 4040568:	10842704 	addi	r2,r2,4252
 404056c:	10c00035 	stwio	r3,0(r2)
	// Post semaphore to acknowledge IRQ data is now available
	int err = OSSemPost(semKeyChange);
 4040570:	d0a04117 	ldw	r2,-32508(gp)
 4040574:	1009883a 	mov	r4,r2
 4040578:	4055f3c0 	call	4055f3c <OSSemPost>
 404057c:	10803fcc 	andi	r2,r2,255
 4040580:	e0bffd15 	stw	r2,-12(fp)
	if (err != OS_NO_ERR) printf("Failed to post semaphore semKeyChange: %x\n",err);
 4040584:	e0bffd17 	ldw	r2,-12(fp)
 4040588:	10000426 	beq	r2,zero,404059c <KEY_IN_ISR+0x70>
 404058c:	e17ffd17 	ldw	r5,-12(fp)
 4040590:	01008034 	movhi	r4,512
 4040594:	21000004 	addi	r4,r4,0
 4040598:	4043a180 	call	4043a18 <printf>
}
 404059c:	0001883a 	nop
 40405a0:	e037883a 	mov	sp,fp
 40405a4:	dfc00117 	ldw	ra,4(sp)
 40405a8:	df000017 	ldw	fp,0(sp)
 40405ac:	dec00204 	addi	sp,sp,8
 40405b0:	f800283a 	ret

040405b4 <SW_IN_ISR>:

void SW_IN_ISR(void * isr_context, alt_u32 id)
{
 40405b4:	defffa04 	addi	sp,sp,-24
 40405b8:	dfc00515 	stw	ra,20(sp)
 40405bc:	df000415 	stw	fp,16(sp)
 40405c0:	df000404 	addi	fp,sp,16
 40405c4:	e13ffe15 	stw	r4,-8(fp)
 40405c8:	e17fff15 	stw	r5,-4(fp)
	// Retrieve the memory address to store the edge capture data
	volatile int* swEdgeCapturePtr = (volatile int*) isr_context;
 40405cc:	e0bffe17 	ldw	r2,-8(fp)
 40405d0:	e0bffc15 	stw	r2,-16(fp)
	// Get edge capture data
	*swEdgeCapturePtr = IORD_ALTERA_AVALON_PIO_EDGE_CAP(SW_IN_BASE);
 40405d4:	00810234 	movhi	r2,1032
 40405d8:	10842b04 	addi	r2,r2,4268
 40405dc:	10c00037 	ldwio	r3,0(r2)
 40405e0:	e0bffc17 	ldw	r2,-16(fp)
 40405e4:	10c00015 	stw	r3,0(r2)
	// Write to the edge capture register to reset it.
	IOWR_ALTERA_AVALON_PIO_EDGE_CAP(SW_IN_BASE, 0);
 40405e8:	0007883a 	mov	r3,zero
 40405ec:	00810234 	movhi	r2,1032
 40405f0:	10842b04 	addi	r2,r2,4268
 40405f4:	10c00035 	stwio	r3,0(r2)
	// Post semaphore to acknowledge IRQ data is now available
	int err = OSSemPost(semSwitchChange);
 40405f8:	d0a03917 	ldw	r2,-32540(gp)
 40405fc:	1009883a 	mov	r4,r2
 4040600:	4055f3c0 	call	4055f3c <OSSemPost>
 4040604:	10803fcc 	andi	r2,r2,255
 4040608:	e0bffd15 	stw	r2,-12(fp)
	if (err != OS_NO_ERR) printf("Failed to post semaphore semSwChange: %x\n",err);
 404060c:	e0bffd17 	ldw	r2,-12(fp)
 4040610:	10000426 	beq	r2,zero,4040624 <SW_IN_ISR+0x70>
 4040614:	e17ffd17 	ldw	r5,-12(fp)
 4040618:	01008034 	movhi	r4,512
 404061c:	21000b04 	addi	r4,r4,44
 4040620:	4043a180 	call	4043a18 <printf>

}
 4040624:	0001883a 	nop
 4040628:	e037883a 	mov	sp,fp
 404062c:	dfc00117 	ldw	ra,4(sp)
 4040630:	df000017 	ldw	fp,0(sp)
 4040634:	dec00204 	addi	sp,sp,8
 4040638:	f800283a 	ret

0404063c <initButtonIRQ>:

/* initButtonIRQ()
 * Initialises the KEY interrupt handler
 */
static void initButtonIRQ()
{
 404063c:	defffc04 	addi	sp,sp,-16
 4040640:	dfc00315 	stw	ra,12(sp)
 4040644:	df000215 	stw	fp,8(sp)
 4040648:	df000204 	addi	fp,sp,8
	// Recast the edge_capture pointer to match the
	//alt_irq_register() function prototype.
	void* keyEdgeCapturePtr = (void*) &keyPressedContext;
 404064c:	d0a03a04 	addi	r2,gp,-32536
 4040650:	e0bfff15 	stw	r2,-4(fp)
	// Enable interrupts for both key
	IOWR_ALTERA_AVALON_PIO_IRQ_MASK(KEY_IN_BASE, 0x3);
 4040654:	00c000c4 	movi	r3,3
 4040658:	00810234 	movhi	r2,1032
 404065c:	10842604 	addi	r2,r2,4248
 4040660:	10c00035 	stwio	r3,0(r2)
	// Reset the edge capture register.
	IOWR_ALTERA_AVALON_PIO_EDGE_CAP(KEY_IN_BASE, 0x0);
 4040664:	0007883a 	mov	r3,zero
 4040668:	00810234 	movhi	r2,1032
 404066c:	10842704 	addi	r2,r2,4252
 4040670:	10c00035 	stwio	r3,0(r2)
	// Register the ISR.
	alt_ic_isr_register(
 4040674:	d8000015 	stw	zero,0(sp)
 4040678:	e1ffff17 	ldw	r7,-4(fp)
 404067c:	01810134 	movhi	r6,1028
 4040680:	31814b04 	addi	r6,r6,1324
 4040684:	014000c4 	movi	r5,3
 4040688:	0009883a 	mov	r4,zero
 404068c:	404fa240 	call	404fa24 <alt_ic_isr_register>
		  KEY_IN_IRQ,
		  (alt_isr_func) KEY_IN_ISR,
		  keyEdgeCapturePtr,
		  0x0
  );
}
 4040690:	0001883a 	nop
 4040694:	e037883a 	mov	sp,fp
 4040698:	dfc00117 	ldw	ra,4(sp)
 404069c:	df000017 	ldw	fp,0(sp)
 40406a0:	dec00204 	addi	sp,sp,8
 40406a4:	f800283a 	ret

040406a8 <initSwIRQ>:

static void initSwIRQ()
{
 40406a8:	defffc04 	addi	sp,sp,-16
 40406ac:	dfc00315 	stw	ra,12(sp)
 40406b0:	df000215 	stw	fp,8(sp)
 40406b4:	df000204 	addi	fp,sp,8
	// Recast the edge_capture pointer to match the
	//alt_irq_register() function prototype.
	void* SwEdgeCapturePtr = (void*) &SwChangedContext;
 40406b8:	d0a03c04 	addi	r2,gp,-32528
 40406bc:	e0bfff15 	stw	r2,-4(fp)
	// Enable interrupts for both key
	IOWR_ALTERA_AVALON_PIO_IRQ_MASK(SW_IN_BASE, 0x3FF);
 40406c0:	00c0ffc4 	movi	r3,1023
 40406c4:	00810234 	movhi	r2,1032
 40406c8:	10842a04 	addi	r2,r2,4264
 40406cc:	10c00035 	stwio	r3,0(r2)
	// Reset the edge capture register.
	IOWR_ALTERA_AVALON_PIO_EDGE_CAP(SW_IN_BASE, 0x0);
 40406d0:	0007883a 	mov	r3,zero
 40406d4:	00810234 	movhi	r2,1032
 40406d8:	10842b04 	addi	r2,r2,4268
 40406dc:	10c00035 	stwio	r3,0(r2)
	// Register the ISR.
	alt_ic_isr_register(
 40406e0:	d8000015 	stw	zero,0(sp)
 40406e4:	e1ffff17 	ldw	r7,-4(fp)
 40406e8:	01810134 	movhi	r6,1028
 40406ec:	31816d04 	addi	r6,r6,1460
 40406f0:	01400084 	movi	r5,2
 40406f4:	0009883a 	mov	r4,zero
 40406f8:	404fa240 	call	404fa24 <alt_ic_isr_register>
		  SW_IN_IRQ,
		  (alt_isr_func) SW_IN_ISR,
		  SwEdgeCapturePtr,
		  0x0
  );
}
 40406fc:	0001883a 	nop
 4040700:	e037883a 	mov	sp,fp
 4040704:	dfc00117 	ldw	ra,4(sp)
 4040708:	df000017 	ldw	fp,0(sp)
 404070c:	dec00204 	addi	sp,sp,8
 4040710:	f800283a 	ret

04040714 <imageToBuffer>:
 * ------------------------- */

/* ------------------------- *
 *    BEGIN MS2 FUNCTIONS	 *
 * ------------------------- */
void imageToBuffer(int* imgPtr, int horizStart, int vertStart) {
 4040714:	defff704 	addi	sp,sp,-36
 4040718:	df000815 	stw	fp,32(sp)
 404071c:	df000804 	addi	fp,sp,32
 4040720:	e13ffd15 	stw	r4,-12(fp)
 4040724:	e17ffe15 	stw	r5,-8(fp)
 4040728:	e1bfff15 	stw	r6,-4(fp)
	int width = IMG_WIDTH/2;
 404072c:	00801404 	movi	r2,80
 4040730:	e0bffa15 	stw	r2,-24(fp)
	int height = IMG_HEIGHT/2;
 4040734:	00800f04 	movi	r2,60
 4040738:	e0bffb15 	stw	r2,-20(fp)
	int position;
	for (int col = 0; col < width; col++) {
 404073c:	e03ff815 	stw	zero,-32(fp)
 4040740:	00002f06 	br	4040800 <imageToBuffer+0xec>
		for (int row = 0; row < height; row++) {
 4040744:	e03ff915 	stw	zero,-28(fp)
 4040748:	00002706 	br	40407e8 <imageToBuffer+0xd4>
			position = horizStart + col + vertStart + row*IMG_WIDTH;
 404074c:	e0fffe17 	ldw	r3,-8(fp)
 4040750:	e0bff817 	ldw	r2,-32(fp)
 4040754:	1887883a 	add	r3,r3,r2
 4040758:	e0bfff17 	ldw	r2,-4(fp)
 404075c:	1887883a 	add	r3,r3,r2
 4040760:	e0bff917 	ldw	r2,-28(fp)
 4040764:	10802824 	muli	r2,r2,160
 4040768:	1885883a 	add	r2,r3,r2
 404076c:	e0bffc15 	stw	r2,-16(fp)
			IOWR_32DIRECT(PB_ADR_BASE,0, position);
 4040770:	00810234 	movhi	r2,1032
 4040774:	10842004 	addi	r2,r2,4224
 4040778:	e0fffc17 	ldw	r3,-16(fp)
 404077c:	10c00035 	stwio	r3,0(r2)
			IOWR_32DIRECT(PBUFF_WREN_BASE,0,1);
 4040780:	00c00044 	movi	r3,1
 4040784:	00810234 	movhi	r2,1032
 4040788:	10841804 	addi	r2,r2,4192
 404078c:	10c00035 	stwio	r3,0(r2)
			IOWR_32DIRECT(PB_DATA_BASE,0,*(imgPtr+2+col+row*80));
 4040790:	e0bff917 	ldw	r2,-28(fp)
 4040794:	10801424 	muli	r2,r2,80
 4040798:	1007883a 	mov	r3,r2
 404079c:	e0bff817 	ldw	r2,-32(fp)
 40407a0:	1885883a 	add	r2,r3,r2
 40407a4:	10800084 	addi	r2,r2,2
 40407a8:	1085883a 	add	r2,r2,r2
 40407ac:	1085883a 	add	r2,r2,r2
 40407b0:	1007883a 	mov	r3,r2
 40407b4:	e0bffd17 	ldw	r2,-12(fp)
 40407b8:	10c5883a 	add	r2,r2,r3
 40407bc:	10c00017 	ldw	r3,0(r2)
 40407c0:	00810234 	movhi	r2,1032
 40407c4:	10841c04 	addi	r2,r2,4208
 40407c8:	10c00035 	stwio	r3,0(r2)
			IOWR_32DIRECT(PBUFF_WREN_BASE,0,0);
 40407cc:	0007883a 	mov	r3,zero
 40407d0:	00810234 	movhi	r2,1032
 40407d4:	10841804 	addi	r2,r2,4192
 40407d8:	10c00035 	stwio	r3,0(r2)
void imageToBuffer(int* imgPtr, int horizStart, int vertStart) {
	int width = IMG_WIDTH/2;
	int height = IMG_HEIGHT/2;
	int position;
	for (int col = 0; col < width; col++) {
		for (int row = 0; row < height; row++) {
 40407dc:	e0bff917 	ldw	r2,-28(fp)
 40407e0:	10800044 	addi	r2,r2,1
 40407e4:	e0bff915 	stw	r2,-28(fp)
 40407e8:	e0fff917 	ldw	r3,-28(fp)
 40407ec:	e0bffb17 	ldw	r2,-20(fp)
 40407f0:	18bfd616 	blt	r3,r2,404074c <__flash_rwdata_start+0xfffe601c>
 * ------------------------- */
void imageToBuffer(int* imgPtr, int horizStart, int vertStart) {
	int width = IMG_WIDTH/2;
	int height = IMG_HEIGHT/2;
	int position;
	for (int col = 0; col < width; col++) {
 40407f4:	e0bff817 	ldw	r2,-32(fp)
 40407f8:	10800044 	addi	r2,r2,1
 40407fc:	e0bff815 	stw	r2,-32(fp)
 4040800:	e0fff817 	ldw	r3,-32(fp)
 4040804:	e0bffa17 	ldw	r2,-24(fp)
 4040808:	18bfce16 	blt	r3,r2,4040744 <__flash_rwdata_start+0xfffe6014>
			IOWR_32DIRECT(PBUFF_WREN_BASE,0,1);
			IOWR_32DIRECT(PB_DATA_BASE,0,*(imgPtr+2+col+row*80));
			IOWR_32DIRECT(PBUFF_WREN_BASE,0,0);
		}
	}
}
 404080c:	0001883a 	nop
 4040810:	e037883a 	mov	sp,fp
 4040814:	df000017 	ldw	fp,0(sp)
 4040818:	dec00104 	addi	sp,sp,4
 404081c:	f800283a 	ret

04040820 <displayDigit>:
// Function to display a digit on a hex dislay
void displayDigit (int hexBayBase, int digitOffset, int digit) {
 4040820:	defffa04 	addi	sp,sp,-24
 4040824:	df000515 	stw	fp,20(sp)
 4040828:	df000504 	addi	fp,sp,20
 404082c:	e13ffd15 	stw	r4,-12(fp)
 4040830:	e17ffe15 	stw	r5,-8(fp)
 4040834:	e1bfff15 	stw	r6,-4(fp)
	int data =  IORD(hexBayBase, 0) & (0xffff00ffff >> (2-digitOffset)*8);
 4040838:	e13ffd17 	ldw	r4,-12(fp)
 404083c:	21800037 	ldwio	r6,0(r4)
 4040840:	01400084 	movi	r5,2
 4040844:	e13ffe17 	ldw	r4,-8(fp)
 4040848:	2909c83a 	sub	r4,r5,r4
 404084c:	200890fa 	slli	r4,r4,3
 4040850:	217ff804 	addi	r5,r4,-32
 4040854:	28000416 	blt	r5,zero,4040868 <displayDigit+0x48>
 4040858:	01003fc4 	movi	r4,255
 404085c:	2145d83a 	sra	r2,r4,r5
 4040860:	0007883a 	mov	r3,zero
 4040864:	00000b06 	br	4040894 <displayDigit+0x74>
 4040868:	01403fc4 	movi	r5,255
 404086c:	280e907a 	slli	r7,r5,1
 4040870:	014007c4 	movi	r5,31
 4040874:	290bc83a 	sub	r5,r5,r4
 4040878:	394e983a 	sll	r7,r7,r5
 404087c:	017fc074 	movhi	r5,65281
 4040880:	297fffc4 	addi	r5,r5,-1
 4040884:	2904d83a 	srl	r2,r5,r4
 4040888:	3884b03a 	or	r2,r7,r2
 404088c:	01403fc4 	movi	r5,255
 4040890:	2907d83a 	sra	r3,r5,r4
 4040894:	3084703a 	and	r2,r6,r2
 4040898:	e0bffc15 	stw	r2,-16(fp)
	int digitBits;
	switch (digit) {
 404089c:	e0bfff17 	ldw	r2,-4(fp)
 40408a0:	108002a8 	cmpgeui	r2,r2,10
 40408a4:	10002f1e 	bne	r2,zero,4040964 <displayDigit+0x144>
 40408a8:	e0bfff17 	ldw	r2,-4(fp)
 40408ac:	100690ba 	slli	r3,r2,2
 40408b0:	00810134 	movhi	r2,1028
 40408b4:	10823104 	addi	r2,r2,2244
 40408b8:	1885883a 	add	r2,r3,r2
 40408bc:	10800017 	ldw	r2,0(r2)
 40408c0:	1000683a 	jmp	r2
 40408c4:	040408ec 	andhi	r16,zero,4131
 40408c8:	040408f8 	rdprs	r16,zero,4131
 40408cc:	04040904 	movi	r16,4132
 40408d0:	04040910 	cmplti	r16,zero,4132
 40408d4:	0404091c 	xori	r16,zero,4132
 40408d8:	04040928 	cmpgeui	r16,zero,4132
 40408dc:	04040934 	movhi	r16,4132
 40408e0:	04040940 	call	404094 <OSCtxSw_SWITCH_PC+0x404054>
 40408e4:	0404094c 	andi	r16,zero,4133
 40408e8:	04040958 	cmpnei	r16,zero,4133
	case 0: digitBits = 0b11000000; break;
 40408ec:	00803004 	movi	r2,192
 40408f0:	e0bffb15 	stw	r2,-20(fp)
 40408f4:	00001b06 	br	4040964 <displayDigit+0x144>
	case 1: digitBits = 0b11111001; break;
 40408f8:	00803e44 	movi	r2,249
 40408fc:	e0bffb15 	stw	r2,-20(fp)
 4040900:	00001806 	br	4040964 <displayDigit+0x144>
	case 2: digitBits = 0b10100100; break;
 4040904:	00802904 	movi	r2,164
 4040908:	e0bffb15 	stw	r2,-20(fp)
 404090c:	00001506 	br	4040964 <displayDigit+0x144>
	case 3: digitBits = 0b10110000; break;
 4040910:	00802c04 	movi	r2,176
 4040914:	e0bffb15 	stw	r2,-20(fp)
 4040918:	00001206 	br	4040964 <displayDigit+0x144>
	case 4: digitBits = 0b10011001; break;
 404091c:	00802644 	movi	r2,153
 4040920:	e0bffb15 	stw	r2,-20(fp)
 4040924:	00000f06 	br	4040964 <displayDigit+0x144>
	case 5: digitBits = 0b10010010; break;
 4040928:	00802484 	movi	r2,146
 404092c:	e0bffb15 	stw	r2,-20(fp)
 4040930:	00000c06 	br	4040964 <displayDigit+0x144>
	case 6: digitBits = 0b10000010; break;
 4040934:	00802084 	movi	r2,130
 4040938:	e0bffb15 	stw	r2,-20(fp)
 404093c:	00000906 	br	4040964 <displayDigit+0x144>
	case 7: digitBits = 0b11111000; break;
 4040940:	00803e04 	movi	r2,248
 4040944:	e0bffb15 	stw	r2,-20(fp)
 4040948:	00000606 	br	4040964 <displayDigit+0x144>
	case 8: digitBits = 0b10000000; break;
 404094c:	00802004 	movi	r2,128
 4040950:	e0bffb15 	stw	r2,-20(fp)
 4040954:	00000306 	br	4040964 <displayDigit+0x144>
	case 9: digitBits = 0b10011000; break;
 4040958:	00802604 	movi	r2,152
 404095c:	e0bffb15 	stw	r2,-20(fp)
 4040960:	0001883a 	nop
	}
	data |= (digitBits << digitOffset*8);
 4040964:	e0bffe17 	ldw	r2,-8(fp)
 4040968:	100490fa 	slli	r2,r2,3
 404096c:	e0fffb17 	ldw	r3,-20(fp)
 4040970:	1884983a 	sll	r2,r3,r2
 4040974:	e0fffc17 	ldw	r3,-16(fp)
 4040978:	1884b03a 	or	r2,r3,r2
 404097c:	e0bffc15 	stw	r2,-16(fp)
	IOWR(hexBayBase, 0, data);
 4040980:	e0bffd17 	ldw	r2,-12(fp)
 4040984:	e0fffc17 	ldw	r3,-16(fp)
 4040988:	10c00035 	stwio	r3,0(r2)
}
 404098c:	0001883a 	nop
 4040990:	e037883a 	mov	sp,fp
 4040994:	df000017 	ldw	fp,0(sp)
 4040998:	dec00104 	addi	sp,sp,4
 404099c:	f800283a 	ret

040409a0 <conv>:
int conv(
		int* imgPatch,
		int* kernel,
		int dim, // Assume Kernel is Square this is the 1d dim
		int divisor
	){
 40409a0:	defff704 	addi	sp,sp,-36
 40409a4:	dfc00815 	stw	ra,32(sp)
 40409a8:	df000715 	stw	fp,28(sp)
 40409ac:	df000704 	addi	fp,sp,28
 40409b0:	e13ffc15 	stw	r4,-16(fp)
 40409b4:	e17ffd15 	stw	r5,-12(fp)
 40409b8:	e1bffe15 	stw	r6,-8(fp)
 40409bc:	e1ffff15 	stw	r7,-4(fp)
	int result = 0; // Must be signed in-case we use a negative kernel
 40409c0:	e03ff915 	stw	zero,-28(fp)
	// Get values from patch array using supplied
	// and multiply with respective
	// Kernel value (use two for loops)
	for (int col=0; col<dim;col++) {
 40409c4:	e03ffa15 	stw	zero,-24(fp)
 40409c8:	00002706 	br	4040a68 <conv+0xc8>
		for (int row=0; row<dim;row++) {
 40409cc:	e03ffb15 	stw	zero,-20(fp)
 40409d0:	00001f06 	br	4040a50 <conv+0xb0>
			// Add the result of the kernel and array multiplication to a running total
			result += (*(imgPatch+col+row*dim))*(*(kernel+col+row*dim));
 40409d4:	e0fffb17 	ldw	r3,-20(fp)
 40409d8:	e0bffe17 	ldw	r2,-8(fp)
 40409dc:	1885383a 	mul	r2,r3,r2
 40409e0:	1007883a 	mov	r3,r2
 40409e4:	e0bffa17 	ldw	r2,-24(fp)
 40409e8:	1885883a 	add	r2,r3,r2
 40409ec:	1085883a 	add	r2,r2,r2
 40409f0:	1085883a 	add	r2,r2,r2
 40409f4:	1007883a 	mov	r3,r2
 40409f8:	e0bffc17 	ldw	r2,-16(fp)
 40409fc:	10c5883a 	add	r2,r2,r3
 4040a00:	10c00017 	ldw	r3,0(r2)
 4040a04:	e13ffb17 	ldw	r4,-20(fp)
 4040a08:	e0bffe17 	ldw	r2,-8(fp)
 4040a0c:	2085383a 	mul	r2,r4,r2
 4040a10:	1009883a 	mov	r4,r2
 4040a14:	e0bffa17 	ldw	r2,-24(fp)
 4040a18:	2085883a 	add	r2,r4,r2
 4040a1c:	1085883a 	add	r2,r2,r2
 4040a20:	1085883a 	add	r2,r2,r2
 4040a24:	1009883a 	mov	r4,r2
 4040a28:	e0bffd17 	ldw	r2,-12(fp)
 4040a2c:	1105883a 	add	r2,r2,r4
 4040a30:	10800017 	ldw	r2,0(r2)
 4040a34:	1885383a 	mul	r2,r3,r2
 4040a38:	e0fff917 	ldw	r3,-28(fp)
 4040a3c:	1885883a 	add	r2,r3,r2
 4040a40:	e0bff915 	stw	r2,-28(fp)
	int result = 0; // Must be signed in-case we use a negative kernel
	// Get values from patch array using supplied
	// and multiply with respective
	// Kernel value (use two for loops)
	for (int col=0; col<dim;col++) {
		for (int row=0; row<dim;row++) {
 4040a44:	e0bffb17 	ldw	r2,-20(fp)
 4040a48:	10800044 	addi	r2,r2,1
 4040a4c:	e0bffb15 	stw	r2,-20(fp)
 4040a50:	e0fffb17 	ldw	r3,-20(fp)
 4040a54:	e0bffe17 	ldw	r2,-8(fp)
 4040a58:	18bfde16 	blt	r3,r2,40409d4 <__flash_rwdata_start+0xfffe62a4>
	){
	int result = 0; // Must be signed in-case we use a negative kernel
	// Get values from patch array using supplied
	// and multiply with respective
	// Kernel value (use two for loops)
	for (int col=0; col<dim;col++) {
 4040a5c:	e0bffa17 	ldw	r2,-24(fp)
 4040a60:	10800044 	addi	r2,r2,1
 4040a64:	e0bffa15 	stw	r2,-24(fp)
 4040a68:	e0fffa17 	ldw	r3,-24(fp)
 4040a6c:	e0bffe17 	ldw	r2,-8(fp)
 4040a70:	18bfd616 	blt	r3,r2,40409cc <__flash_rwdata_start+0xfffe629c>
			result += (*(imgPatch+col+row*dim))*(*(kernel+col+row*dim));
		}
	}

	// Divide result by divisor if necessary
	if (divisor > 1) result /= divisor;
 4040a74:	e0bfff17 	ldw	r2,-4(fp)
 4040a78:	10800090 	cmplti	r2,r2,2
 4040a7c:	1000041e 	bne	r2,zero,4040a90 <conv+0xf0>
 4040a80:	e17fff17 	ldw	r5,-4(fp)
 4040a84:	e13ff917 	ldw	r4,-28(fp)
 4040a88:	4042eb80 	call	4042eb8 <__divsi3>
 4040a8c:	e0bff915 	stw	r2,-28(fp)
	return result;
 4040a90:	e0bff917 	ldw	r2,-28(fp)
}
 4040a94:	e037883a 	mov	sp,fp
 4040a98:	dfc00117 	ldw	ra,4(sp)
 4040a9c:	df000017 	ldw	fp,0(sp)
 4040aa0:	dec00204 	addi	sp,sp,8
 4040aa4:	f800283a 	ret

04040aa8 <downscaleImg2x>:

// [COLS,ROWS,IMGDATA...,IMGDATA...,...]

int* downscaleImg2x(int* imageArray, int cols, int rows, int padding) {
 4040aa8:	deffec04 	addi	sp,sp,-80
 4040aac:	dfc01315 	stw	ra,76(sp)
 4040ab0:	df001215 	stw	fp,72(sp)
 4040ab4:	df001204 	addi	fp,sp,72
 4040ab8:	e13ffc15 	stw	r4,-16(fp)
 4040abc:	e17ffd15 	stw	r5,-12(fp)
 4040ac0:	e1bffe15 	stw	r6,-8(fp)
 4040ac4:	e1ffff15 	stw	r7,-4(fp)
	// This requests a new block of memory to put our down-scaled image
	// Free this afterwards or we will have a memory leak!
	int outputCols = cols/2;
 4040ac8:	e0bffd17 	ldw	r2,-12(fp)
 4040acc:	1006d7fa 	srli	r3,r2,31
 4040ad0:	1885883a 	add	r2,r3,r2
 4040ad4:	1005d07a 	srai	r2,r2,1
 4040ad8:	e0bff115 	stw	r2,-60(fp)
	int outputRows = rows/2;
 4040adc:	e0bffe17 	ldw	r2,-8(fp)
 4040ae0:	1006d7fa 	srli	r3,r2,31
 4040ae4:	1885883a 	add	r2,r3,r2
 4040ae8:	1005d07a 	srai	r2,r2,1
 4040aec:	e0bff215 	stw	r2,-56(fp)

	int* output = (int*)malloc((outputCols*outputRows+2)*sizeof(int));
 4040af0:	e0fff117 	ldw	r3,-60(fp)
 4040af4:	e0bff217 	ldw	r2,-56(fp)
 4040af8:	1885383a 	mul	r2,r3,r2
 4040afc:	10800084 	addi	r2,r2,2
 4040b00:	1085883a 	add	r2,r2,r2
 4040b04:	1085883a 	add	r2,r2,r2
 4040b08:	1009883a 	mov	r4,r2
 4040b0c:	404306c0 	call	404306c <malloc>
 4040b10:	e0bff315 	stw	r2,-52(fp)
	*(output) = outputCols;
 4040b14:	e0bff317 	ldw	r2,-52(fp)
 4040b18:	e0fff117 	ldw	r3,-60(fp)
 4040b1c:	10c00015 	stw	r3,0(r2)
	*(output+1) = outputRows;
 4040b20:	e0bff317 	ldw	r2,-52(fp)
 4040b24:	10800104 	addi	r2,r2,4
 4040b28:	e0fff217 	ldw	r3,-56(fp)
 4040b2c:	10c00015 	stw	r3,0(r2)
	// Iterate through each row/column and get the relevant pixel, perform the conv
	int patch[4];
	int offset[2];

	int bytesToCopy = sizeof(int)*2;
 4040b30:	00800204 	movi	r2,8
 4040b34:	e0bff415 	stw	r2,-48(fp)
	int writeIndex = 0;
 4040b38:	e03fee15 	stw	zero,-72(fp)
	int temp;
	for (int row = 0; row < rows-1; row+=2){
 4040b3c:	e03fef15 	stw	zero,-68(fp)
 4040b40:	00004d06 	br	4040c78 <downscaleImg2x+0x1d0>
		for (int col = 0; col < cols-1; col+=2){
 4040b44:	e03ff015 	stw	zero,-64(fp)
 4040b48:	00004406 	br	4040c5c <downscaleImg2x+0x1b4>
			offset[0] = col+row*cols; 		// Calculate pixel offset row1
 4040b4c:	e0ffef17 	ldw	r3,-68(fp)
 4040b50:	e0bffd17 	ldw	r2,-12(fp)
 4040b54:	1887383a 	mul	r3,r3,r2
 4040b58:	e0bff017 	ldw	r2,-64(fp)
 4040b5c:	1885883a 	add	r2,r3,r2
 4040b60:	e0bffa15 	stw	r2,-24(fp)
			offset[1] = col+(row+1)*cols;	// Calculate pixel offset row2
 4040b64:	e0bfef17 	ldw	r2,-68(fp)
 4040b68:	10c00044 	addi	r3,r2,1
 4040b6c:	e0bffd17 	ldw	r2,-12(fp)
 4040b70:	1887383a 	mul	r3,r3,r2
 4040b74:	e0bff017 	ldw	r2,-64(fp)
 4040b78:	1885883a 	add	r2,r3,r2
 4040b7c:	e0bffb15 	stw	r2,-20(fp)
			memcpy(patch,imageArray+padding+offset[0],bytesToCopy); // Copy first row to patch
 4040b80:	e0bffa17 	ldw	r2,-24(fp)
 4040b84:	1007883a 	mov	r3,r2
 4040b88:	e0bfff17 	ldw	r2,-4(fp)
 4040b8c:	1885883a 	add	r2,r3,r2
 4040b90:	1085883a 	add	r2,r2,r2
 4040b94:	1085883a 	add	r2,r2,r2
 4040b98:	1007883a 	mov	r3,r2
 4040b9c:	e0bffc17 	ldw	r2,-16(fp)
 4040ba0:	10c7883a 	add	r3,r2,r3
 4040ba4:	e13ff417 	ldw	r4,-48(fp)
 4040ba8:	e0bff604 	addi	r2,fp,-40
 4040bac:	200d883a 	mov	r6,r4
 4040bb0:	180b883a 	mov	r5,r3
 4040bb4:	1009883a 	mov	r4,r2
 4040bb8:	40438a00 	call	40438a0 <memcpy>
			memcpy(patch+2,imageArray+padding+offset[1],bytesToCopy); // Copy second row to patch
 4040bbc:	e0bff604 	addi	r2,fp,-40
 4040bc0:	10800204 	addi	r2,r2,8
 4040bc4:	e0fffb17 	ldw	r3,-20(fp)
 4040bc8:	1809883a 	mov	r4,r3
 4040bcc:	e0ffff17 	ldw	r3,-4(fp)
 4040bd0:	20c7883a 	add	r3,r4,r3
 4040bd4:	18c7883a 	add	r3,r3,r3
 4040bd8:	18c7883a 	add	r3,r3,r3
 4040bdc:	1809883a 	mov	r4,r3
 4040be0:	e0fffc17 	ldw	r3,-16(fp)
 4040be4:	1907883a 	add	r3,r3,r4
 4040be8:	e13ff417 	ldw	r4,-48(fp)
 4040bec:	200d883a 	mov	r6,r4
 4040bf0:	180b883a 	mov	r5,r3
 4040bf4:	1009883a 	mov	r4,r2
 4040bf8:	40438a00 	call	40438a0 <memcpy>
			temp = conv(patch,kernDownscale2x,2,0); // Calculate convolution
 4040bfc:	e0bff604 	addi	r2,fp,-40
 4040c00:	000f883a 	mov	r7,zero
 4040c04:	01800084 	movi	r6,2
 4040c08:	01408034 	movhi	r5,512
 4040c0c:	29419904 	addi	r5,r5,1636
 4040c10:	1009883a 	mov	r4,r2
 4040c14:	40409a00 	call	40409a0 <conv>
 4040c18:	e0bff515 	stw	r2,-44(fp)
			*(output+2+writeIndex) = temp >> 2;
 4040c1c:	e0bfee17 	ldw	r2,-72(fp)
 4040c20:	10800084 	addi	r2,r2,2
 4040c24:	1085883a 	add	r2,r2,r2
 4040c28:	1085883a 	add	r2,r2,r2
 4040c2c:	1007883a 	mov	r3,r2
 4040c30:	e0bff317 	ldw	r2,-52(fp)
 4040c34:	10c5883a 	add	r2,r2,r3
 4040c38:	e0fff517 	ldw	r3,-44(fp)
 4040c3c:	1807d0ba 	srai	r3,r3,2
 4040c40:	10c00015 	stw	r3,0(r2)
			writeIndex++;
 4040c44:	e0bfee17 	ldw	r2,-72(fp)
 4040c48:	10800044 	addi	r2,r2,1
 4040c4c:	e0bfee15 	stw	r2,-72(fp)

	int bytesToCopy = sizeof(int)*2;
	int writeIndex = 0;
	int temp;
	for (int row = 0; row < rows-1; row+=2){
		for (int col = 0; col < cols-1; col+=2){
 4040c50:	e0bff017 	ldw	r2,-64(fp)
 4040c54:	10800084 	addi	r2,r2,2
 4040c58:	e0bff015 	stw	r2,-64(fp)
 4040c5c:	e0bffd17 	ldw	r2,-12(fp)
 4040c60:	10bfffc4 	addi	r2,r2,-1
 4040c64:	e0fff017 	ldw	r3,-64(fp)
 4040c68:	18bfb816 	blt	r3,r2,4040b4c <__flash_rwdata_start+0xfffe641c>
	int offset[2];

	int bytesToCopy = sizeof(int)*2;
	int writeIndex = 0;
	int temp;
	for (int row = 0; row < rows-1; row+=2){
 4040c6c:	e0bfef17 	ldw	r2,-68(fp)
 4040c70:	10800084 	addi	r2,r2,2
 4040c74:	e0bfef15 	stw	r2,-68(fp)
 4040c78:	e0bffe17 	ldw	r2,-8(fp)
 4040c7c:	10bfffc4 	addi	r2,r2,-1
 4040c80:	e0ffef17 	ldw	r3,-68(fp)
 4040c84:	18bfaf16 	blt	r3,r2,4040b44 <__flash_rwdata_start+0xfffe6414>
			*(output+2+writeIndex) = temp >> 2;
			writeIndex++;
		}
	}
	// Return the memory location with the downscaled image
	return output;
 4040c88:	e0bff317 	ldw	r2,-52(fp)
}
 4040c8c:	e037883a 	mov	sp,fp
 4040c90:	dfc00117 	ldw	ra,4(sp)
 4040c94:	df000017 	ldw	fp,0(sp)
 4040c98:	dec00204 	addi	sp,sp,8
 4040c9c:	f800283a 	ret

04040ca0 <edgeDetectionConv>:

int* edgeDetectionConv(int* imageArray, int cols, int rows, int direction) {
 4040ca0:	deffe704 	addi	sp,sp,-100
 4040ca4:	dfc01815 	stw	ra,96(sp)
 4040ca8:	df001715 	stw	fp,92(sp)
 4040cac:	dc001615 	stw	r16,88(sp)
 4040cb0:	df001704 	addi	fp,sp,92
 4040cb4:	e13ffb15 	stw	r4,-20(fp)
 4040cb8:	e17ffc15 	stw	r5,-16(fp)
 4040cbc:	e1bffd15 	stw	r6,-12(fp)
 4040cc0:	e1fffe15 	stw	r7,-8(fp)
	// This requests a new block of memory to put our image
	// Free this afterwards or we will have a memory leak!
	int* output = (int*)malloc(((cols)*(rows)+2)*sizeof(int));
 4040cc4:	e0fffc17 	ldw	r3,-16(fp)
 4040cc8:	e0bffd17 	ldw	r2,-12(fp)
 4040ccc:	1885383a 	mul	r2,r3,r2
 4040cd0:	10800084 	addi	r2,r2,2
 4040cd4:	1085883a 	add	r2,r2,r2
 4040cd8:	1085883a 	add	r2,r2,r2
 4040cdc:	1009883a 	mov	r4,r2
 4040ce0:	404306c0 	call	404306c <malloc>
 4040ce4:	e0bfec15 	stw	r2,-80(fp)
	*(output) = cols;
 4040ce8:	e0bfec17 	ldw	r2,-80(fp)
 4040cec:	e0fffc17 	ldw	r3,-16(fp)
 4040cf0:	10c00015 	stw	r3,0(r2)
	*(output+1) = rows;
 4040cf4:	e0bfec17 	ldw	r2,-80(fp)
 4040cf8:	10800104 	addi	r2,r2,4
 4040cfc:	e0fffd17 	ldw	r3,-12(fp)
 4040d00:	10c00015 	stw	r3,0(r2)
	// Iterate through each row/column and get the relevant pixel, perform the conv
	int patch[9];
	int offset[3];
	int* kernel = direction == 0 ? kernEdgeDetectH : kernEdgeDetectV;
 4040d04:	e0bffe17 	ldw	r2,-8(fp)
 4040d08:	1000031e 	bne	r2,zero,4040d18 <edgeDetectionConv+0x78>
 4040d0c:	00808034 	movhi	r2,512
 4040d10:	10819d04 	addi	r2,r2,1652
 4040d14:	00000206 	br	4040d20 <edgeDetectionConv+0x80>
 4040d18:	00808034 	movhi	r2,512
 4040d1c:	1081a604 	addi	r2,r2,1688
 4040d20:	e0bfed15 	stw	r2,-76(fp)

	int bytesToCopy = sizeof(int)*3;
 4040d24:	00800304 	movi	r2,12
 4040d28:	e0bfee15 	stw	r2,-72(fp)
	int writeIndex = 0;
 4040d2c:	e03fe915 	stw	zero,-92(fp)
	for (int row = -1; row < rows-1; row++){
 4040d30:	00bfffc4 	movi	r2,-1
 4040d34:	e0bfea15 	stw	r2,-88(fp)
 4040d38:	00007206 	br	4040f04 <edgeDetectionConv+0x264>
		for (int col = -1; col < cols-1; col++){
 4040d3c:	00bfffc4 	movi	r2,-1
 4040d40:	e0bfeb15 	stw	r2,-84(fp)
 4040d44:	00006806 	br	4040ee8 <edgeDetectionConv+0x248>
			if ((row == -1) || (row == rows-2) || (col == -1) || (col == cols-2)) {
 4040d48:	e0bfea17 	ldw	r2,-88(fp)
 4040d4c:	10bfffe0 	cmpeqi	r2,r2,-1
 4040d50:	10000b1e 	bne	r2,zero,4040d80 <edgeDetectionConv+0xe0>
 4040d54:	e0bffd17 	ldw	r2,-12(fp)
 4040d58:	10ffff84 	addi	r3,r2,-2
 4040d5c:	e0bfea17 	ldw	r2,-88(fp)
 4040d60:	18800726 	beq	r3,r2,4040d80 <edgeDetectionConv+0xe0>
 4040d64:	e0bfeb17 	ldw	r2,-84(fp)
 4040d68:	10bfffe0 	cmpeqi	r2,r2,-1
 4040d6c:	1000041e 	bne	r2,zero,4040d80 <edgeDetectionConv+0xe0>
 4040d70:	e0bffc17 	ldw	r2,-16(fp)
 4040d74:	10ffff84 	addi	r3,r2,-2
 4040d78:	e0bfeb17 	ldw	r2,-84(fp)
 4040d7c:	18800c1e 	bne	r3,r2,4040db0 <edgeDetectionConv+0x110>
				// Skip This loop for padding
				*(output+2+writeIndex) = 0;
 4040d80:	e0bfe917 	ldw	r2,-92(fp)
 4040d84:	10800084 	addi	r2,r2,2
 4040d88:	1085883a 	add	r2,r2,r2
 4040d8c:	1085883a 	add	r2,r2,r2
 4040d90:	1007883a 	mov	r3,r2
 4040d94:	e0bfec17 	ldw	r2,-80(fp)
 4040d98:	10c5883a 	add	r2,r2,r3
 4040d9c:	10000015 	stw	zero,0(r2)
				writeIndex++;
 4040da0:	e0bfe917 	ldw	r2,-92(fp)
 4040da4:	10800044 	addi	r2,r2,1
 4040da8:	e0bfe915 	stw	r2,-92(fp)
				continue;
 4040dac:	00004b06 	br	4040edc <edgeDetectionConv+0x23c>
			}
			offset[0] = col+row*cols; 		// Calculate pixel offset row1
 4040db0:	e0ffea17 	ldw	r3,-88(fp)
 4040db4:	e0bffc17 	ldw	r2,-16(fp)
 4040db8:	1887383a 	mul	r3,r3,r2
 4040dbc:	e0bfeb17 	ldw	r2,-84(fp)
 4040dc0:	1885883a 	add	r2,r3,r2
 4040dc4:	e0bff815 	stw	r2,-32(fp)
			offset[1] = col+(row+1)*cols;	// Calculate pixel offset row2
 4040dc8:	e0bfea17 	ldw	r2,-88(fp)
 4040dcc:	10c00044 	addi	r3,r2,1
 4040dd0:	e0bffc17 	ldw	r2,-16(fp)
 4040dd4:	1887383a 	mul	r3,r3,r2
 4040dd8:	e0bfeb17 	ldw	r2,-84(fp)
 4040ddc:	1885883a 	add	r2,r3,r2
 4040de0:	e0bff915 	stw	r2,-28(fp)
			offset[2] = col+(row+2)*cols;	// Calculate pixel offset row3
 4040de4:	e0bfea17 	ldw	r2,-88(fp)
 4040de8:	10c00084 	addi	r3,r2,2
 4040dec:	e0bffc17 	ldw	r2,-16(fp)
 4040df0:	1887383a 	mul	r3,r3,r2
 4040df4:	e0bfeb17 	ldw	r2,-84(fp)
 4040df8:	1885883a 	add	r2,r3,r2
 4040dfc:	e0bffa15 	stw	r2,-24(fp)
			memcpy(patch,imageArray+offset[0],bytesToCopy); // Copy first row to patch
 4040e00:	e0bff817 	ldw	r2,-32(fp)
 4040e04:	1085883a 	add	r2,r2,r2
 4040e08:	1085883a 	add	r2,r2,r2
 4040e0c:	1007883a 	mov	r3,r2
 4040e10:	e0bffb17 	ldw	r2,-20(fp)
 4040e14:	10c7883a 	add	r3,r2,r3
 4040e18:	e13fee17 	ldw	r4,-72(fp)
 4040e1c:	e0bfef04 	addi	r2,fp,-68
 4040e20:	200d883a 	mov	r6,r4
 4040e24:	180b883a 	mov	r5,r3
 4040e28:	1009883a 	mov	r4,r2
 4040e2c:	40438a00 	call	40438a0 <memcpy>
			memcpy(patch+3,imageArray+offset[1],bytesToCopy); // Copy second row to patch
 4040e30:	e0bfef04 	addi	r2,fp,-68
 4040e34:	10800304 	addi	r2,r2,12
 4040e38:	e0fff917 	ldw	r3,-28(fp)
 4040e3c:	18c7883a 	add	r3,r3,r3
 4040e40:	18c7883a 	add	r3,r3,r3
 4040e44:	1809883a 	mov	r4,r3
 4040e48:	e0fffb17 	ldw	r3,-20(fp)
 4040e4c:	1907883a 	add	r3,r3,r4
 4040e50:	e13fee17 	ldw	r4,-72(fp)
 4040e54:	200d883a 	mov	r6,r4
 4040e58:	180b883a 	mov	r5,r3
 4040e5c:	1009883a 	mov	r4,r2
 4040e60:	40438a00 	call	40438a0 <memcpy>
			memcpy(patch+6,imageArray+offset[2],bytesToCopy); // Copy second row to patch
 4040e64:	e0bfef04 	addi	r2,fp,-68
 4040e68:	10800604 	addi	r2,r2,24
 4040e6c:	e0fffa17 	ldw	r3,-24(fp)
 4040e70:	18c7883a 	add	r3,r3,r3
 4040e74:	18c7883a 	add	r3,r3,r3
 4040e78:	1809883a 	mov	r4,r3
 4040e7c:	e0fffb17 	ldw	r3,-20(fp)
 4040e80:	1907883a 	add	r3,r3,r4
 4040e84:	e13fee17 	ldw	r4,-72(fp)
 4040e88:	200d883a 	mov	r6,r4
 4040e8c:	180b883a 	mov	r5,r3
 4040e90:	1009883a 	mov	r4,r2
 4040e94:	40438a00 	call	40438a0 <memcpy>
			*(output+2+writeIndex) = conv(patch,kernel,3,1); // Calculate convolution
 4040e98:	e0bfe917 	ldw	r2,-92(fp)
 4040e9c:	10800084 	addi	r2,r2,2
 4040ea0:	1085883a 	add	r2,r2,r2
 4040ea4:	1085883a 	add	r2,r2,r2
 4040ea8:	1007883a 	mov	r3,r2
 4040eac:	e0bfec17 	ldw	r2,-80(fp)
 4040eb0:	10e1883a 	add	r16,r2,r3
 4040eb4:	e0bfef04 	addi	r2,fp,-68
 4040eb8:	01c00044 	movi	r7,1
 4040ebc:	018000c4 	movi	r6,3
 4040ec0:	e17fed17 	ldw	r5,-76(fp)
 4040ec4:	1009883a 	mov	r4,r2
 4040ec8:	40409a00 	call	40409a0 <conv>
 4040ecc:	80800015 	stw	r2,0(r16)
			writeIndex++;
 4040ed0:	e0bfe917 	ldw	r2,-92(fp)
 4040ed4:	10800044 	addi	r2,r2,1
 4040ed8:	e0bfe915 	stw	r2,-92(fp)
	int* kernel = direction == 0 ? kernEdgeDetectH : kernEdgeDetectV;

	int bytesToCopy = sizeof(int)*3;
	int writeIndex = 0;
	for (int row = -1; row < rows-1; row++){
		for (int col = -1; col < cols-1; col++){
 4040edc:	e0bfeb17 	ldw	r2,-84(fp)
 4040ee0:	10800044 	addi	r2,r2,1
 4040ee4:	e0bfeb15 	stw	r2,-84(fp)
 4040ee8:	e0bffc17 	ldw	r2,-16(fp)
 4040eec:	10bfffc4 	addi	r2,r2,-1
 4040ef0:	e0ffeb17 	ldw	r3,-84(fp)
 4040ef4:	18bf9416 	blt	r3,r2,4040d48 <__flash_rwdata_start+0xfffe6618>
	int offset[3];
	int* kernel = direction == 0 ? kernEdgeDetectH : kernEdgeDetectV;

	int bytesToCopy = sizeof(int)*3;
	int writeIndex = 0;
	for (int row = -1; row < rows-1; row++){
 4040ef8:	e0bfea17 	ldw	r2,-88(fp)
 4040efc:	10800044 	addi	r2,r2,1
 4040f00:	e0bfea15 	stw	r2,-88(fp)
 4040f04:	e0bffd17 	ldw	r2,-12(fp)
 4040f08:	10bfffc4 	addi	r2,r2,-1
 4040f0c:	e0ffea17 	ldw	r3,-88(fp)
 4040f10:	18bf8a16 	blt	r3,r2,4040d3c <__flash_rwdata_start+0xfffe660c>
			*(output+2+writeIndex) = conv(patch,kernel,3,1); // Calculate convolution
			writeIndex++;
		}
	}
	// Return the memory location with the downscaled image
	return output;
 4040f14:	e0bfec17 	ldw	r2,-80(fp)
}
 4040f18:	e6ffff04 	addi	sp,fp,-4
 4040f1c:	dfc00217 	ldw	ra,8(sp)
 4040f20:	df000117 	ldw	fp,4(sp)
 4040f24:	dc000017 	ldw	r16,0(sp)
 4040f28:	dec00304 	addi	sp,sp,12
 4040f2c:	f800283a 	ret

04040f30 <processEdgeDetection>:

int* processEdgeDetection(int* conv1, int* conv2, int numPixels) {
 4040f30:	defff604 	addi	sp,sp,-40
 4040f34:	dfc00915 	stw	ra,36(sp)
 4040f38:	df000815 	stw	fp,32(sp)
 4040f3c:	df000804 	addi	fp,sp,32
 4040f40:	e13ffd15 	stw	r4,-12(fp)
 4040f44:	e17ffe15 	stw	r5,-8(fp)
 4040f48:	e1bfff15 	stw	r6,-4(fp)
	// Allocate memory for reversed image
	int* output = (int*)malloc((numPixels+2)*sizeof(int));
 4040f4c:	e0bfff17 	ldw	r2,-4(fp)
 4040f50:	10800084 	addi	r2,r2,2
 4040f54:	1085883a 	add	r2,r2,r2
 4040f58:	1085883a 	add	r2,r2,r2
 4040f5c:	1009883a 	mov	r4,r2
 4040f60:	404306c0 	call	404306c <malloc>
 4040f64:	e0bffc15 	stw	r2,-16(fp)
	*output = *conv1;
 4040f68:	e0bffd17 	ldw	r2,-12(fp)
 4040f6c:	10c00017 	ldw	r3,0(r2)
 4040f70:	e0bffc17 	ldw	r2,-16(fp)
 4040f74:	10c00015 	stw	r3,0(r2)
	*(output+1) = *(conv1+1);
 4040f78:	e0bffc17 	ldw	r2,-16(fp)
 4040f7c:	10800104 	addi	r2,r2,4
 4040f80:	e0fffd17 	ldw	r3,-12(fp)
 4040f84:	18c00117 	ldw	r3,4(r3)
 4040f88:	10c00015 	stw	r3,0(r2)
	int maxValue = 0;
 4040f8c:	e03ff815 	stw	zero,-32(fp)

	// Perform different operations based on if we supply both edge detections
	if (conv2 != NULL) {
 4040f90:	e0bffe17 	ldw	r2,-8(fp)
 4040f94:	10003626 	beq	r2,zero,4041070 <processEdgeDetection+0x140>
		// Sum and ABS
		for (int pixel = 0; pixel<numPixels; pixel++) {
 4040f98:	e03ff915 	stw	zero,-28(fp)
 4040f9c:	00003006 	br	4041060 <processEdgeDetection+0x130>
			*(output+2+pixel) = abs((*(conv1+2+pixel))+(*(conv2+2+pixel)));
 4040fa0:	e0bff917 	ldw	r2,-28(fp)
 4040fa4:	10800084 	addi	r2,r2,2
 4040fa8:	1085883a 	add	r2,r2,r2
 4040fac:	1085883a 	add	r2,r2,r2
 4040fb0:	1007883a 	mov	r3,r2
 4040fb4:	e0bffc17 	ldw	r2,-16(fp)
 4040fb8:	10c7883a 	add	r3,r2,r3
 4040fbc:	e0bff917 	ldw	r2,-28(fp)
 4040fc0:	10800084 	addi	r2,r2,2
 4040fc4:	1085883a 	add	r2,r2,r2
 4040fc8:	1085883a 	add	r2,r2,r2
 4040fcc:	1009883a 	mov	r4,r2
 4040fd0:	e0bffd17 	ldw	r2,-12(fp)
 4040fd4:	1105883a 	add	r2,r2,r4
 4040fd8:	11000017 	ldw	r4,0(r2)
 4040fdc:	e0bff917 	ldw	r2,-28(fp)
 4040fe0:	10800084 	addi	r2,r2,2
 4040fe4:	1085883a 	add	r2,r2,r2
 4040fe8:	1085883a 	add	r2,r2,r2
 4040fec:	100b883a 	mov	r5,r2
 4040ff0:	e0bffe17 	ldw	r2,-8(fp)
 4040ff4:	1145883a 	add	r2,r2,r5
 4040ff8:	10800017 	ldw	r2,0(r2)
 4040ffc:	2085883a 	add	r2,r4,r2
 4041000:	1000010e 	bge	r2,zero,4041008 <processEdgeDetection+0xd8>
 4041004:	0085c83a 	sub	r2,zero,r2
 4041008:	18800015 	stw	r2,0(r3)
			if (*(output+2+pixel) > maxValue) maxValue = *(output+pixel);
 404100c:	e0bff917 	ldw	r2,-28(fp)
 4041010:	10800084 	addi	r2,r2,2
 4041014:	1085883a 	add	r2,r2,r2
 4041018:	1085883a 	add	r2,r2,r2
 404101c:	1007883a 	mov	r3,r2
 4041020:	e0bffc17 	ldw	r2,-16(fp)
 4041024:	10c5883a 	add	r2,r2,r3
 4041028:	10800017 	ldw	r2,0(r2)
 404102c:	e0fff817 	ldw	r3,-32(fp)
 4041030:	1880080e 	bge	r3,r2,4041054 <processEdgeDetection+0x124>
 4041034:	e0bff917 	ldw	r2,-28(fp)
 4041038:	1085883a 	add	r2,r2,r2
 404103c:	1085883a 	add	r2,r2,r2
 4041040:	1007883a 	mov	r3,r2
 4041044:	e0bffc17 	ldw	r2,-16(fp)
 4041048:	10c5883a 	add	r2,r2,r3
 404104c:	10800017 	ldw	r2,0(r2)
 4041050:	e0bff815 	stw	r2,-32(fp)
	int maxValue = 0;

	// Perform different operations based on if we supply both edge detections
	if (conv2 != NULL) {
		// Sum and ABS
		for (int pixel = 0; pixel<numPixels; pixel++) {
 4041054:	e0bff917 	ldw	r2,-28(fp)
 4041058:	10800044 	addi	r2,r2,1
 404105c:	e0bff915 	stw	r2,-28(fp)
 4041060:	e0fff917 	ldw	r3,-28(fp)
 4041064:	e0bfff17 	ldw	r2,-4(fp)
 4041068:	18bfcd16 	blt	r3,r2,4040fa0 <__flash_rwdata_start+0xfffe6870>
 404106c:	00002d06 	br	4041124 <processEdgeDetection+0x1f4>
			*(output+2+pixel) = abs((*(conv1+2+pixel))+(*(conv2+2+pixel)));
			if (*(output+2+pixel) > maxValue) maxValue = *(output+pixel);
		}
	} else {
		// ABS
		for (int pixel = 0; pixel<numPixels; pixel++) {
 4041070:	e03ffa15 	stw	zero,-24(fp)
 4041074:	00002806 	br	4041118 <processEdgeDetection+0x1e8>
			*(output+2+pixel) = abs(*(conv1+2+pixel));
 4041078:	e0bffa17 	ldw	r2,-24(fp)
 404107c:	10800084 	addi	r2,r2,2
 4041080:	1085883a 	add	r2,r2,r2
 4041084:	1085883a 	add	r2,r2,r2
 4041088:	1007883a 	mov	r3,r2
 404108c:	e0bffc17 	ldw	r2,-16(fp)
 4041090:	10c7883a 	add	r3,r2,r3
 4041094:	e0bffa17 	ldw	r2,-24(fp)
 4041098:	10800084 	addi	r2,r2,2
 404109c:	1085883a 	add	r2,r2,r2
 40410a0:	1085883a 	add	r2,r2,r2
 40410a4:	1009883a 	mov	r4,r2
 40410a8:	e0bffd17 	ldw	r2,-12(fp)
 40410ac:	1105883a 	add	r2,r2,r4
 40410b0:	10800017 	ldw	r2,0(r2)
 40410b4:	1000010e 	bge	r2,zero,40410bc <processEdgeDetection+0x18c>
 40410b8:	0085c83a 	sub	r2,zero,r2
 40410bc:	18800015 	stw	r2,0(r3)
			if (*(output+2+pixel) > maxValue) maxValue = *(output+2+pixel);
 40410c0:	e0bffa17 	ldw	r2,-24(fp)
 40410c4:	10800084 	addi	r2,r2,2
 40410c8:	1085883a 	add	r2,r2,r2
 40410cc:	1085883a 	add	r2,r2,r2
 40410d0:	1007883a 	mov	r3,r2
 40410d4:	e0bffc17 	ldw	r2,-16(fp)
 40410d8:	10c5883a 	add	r2,r2,r3
 40410dc:	10800017 	ldw	r2,0(r2)
 40410e0:	e0fff817 	ldw	r3,-32(fp)
 40410e4:	1880090e 	bge	r3,r2,404110c <processEdgeDetection+0x1dc>
 40410e8:	e0bffa17 	ldw	r2,-24(fp)
 40410ec:	10800084 	addi	r2,r2,2
 40410f0:	1085883a 	add	r2,r2,r2
 40410f4:	1085883a 	add	r2,r2,r2
 40410f8:	1007883a 	mov	r3,r2
 40410fc:	e0bffc17 	ldw	r2,-16(fp)
 4041100:	10c5883a 	add	r2,r2,r3
 4041104:	10800017 	ldw	r2,0(r2)
 4041108:	e0bff815 	stw	r2,-32(fp)
			*(output+2+pixel) = abs((*(conv1+2+pixel))+(*(conv2+2+pixel)));
			if (*(output+2+pixel) > maxValue) maxValue = *(output+pixel);
		}
	} else {
		// ABS
		for (int pixel = 0; pixel<numPixels; pixel++) {
 404110c:	e0bffa17 	ldw	r2,-24(fp)
 4041110:	10800044 	addi	r2,r2,1
 4041114:	e0bffa15 	stw	r2,-24(fp)
 4041118:	e0fffa17 	ldw	r3,-24(fp)
 404111c:	e0bfff17 	ldw	r2,-4(fp)
 4041120:	18bfd516 	blt	r3,r2,4041078 <__flash_rwdata_start+0xfffe6948>
			if (*(output+2+pixel) > maxValue) maxValue = *(output+2+pixel);
		}
	}

	// Perform Threshold
	maxValue = maxValue/2;
 4041124:	e0bff817 	ldw	r2,-32(fp)
 4041128:	1006d7fa 	srli	r3,r2,31
 404112c:	1885883a 	add	r2,r3,r2
 4041130:	1005d07a 	srai	r2,r2,1
 4041134:	e0bff815 	stw	r2,-32(fp)
	if (maxValue > 15) maxValue = 15;
 4041138:	e0bff817 	ldw	r2,-32(fp)
 404113c:	10800410 	cmplti	r2,r2,16
 4041140:	1000021e 	bne	r2,zero,404114c <processEdgeDetection+0x21c>
 4041144:	008003c4 	movi	r2,15
 4041148:	e0bff815 	stw	r2,-32(fp)
	for (int pixel = 0; pixel<numPixels; pixel++) {
 404114c:	e03ffb15 	stw	zero,-20(fp)
 4041150:	00001606 	br	40411ac <processEdgeDetection+0x27c>
		if (*(output+2+pixel) > maxValue){
 4041154:	e0bffb17 	ldw	r2,-20(fp)
 4041158:	10800084 	addi	r2,r2,2
 404115c:	1085883a 	add	r2,r2,r2
 4041160:	1085883a 	add	r2,r2,r2
 4041164:	1007883a 	mov	r3,r2
 4041168:	e0bffc17 	ldw	r2,-16(fp)
 404116c:	10c5883a 	add	r2,r2,r3
 4041170:	10800017 	ldw	r2,0(r2)
 4041174:	e0fff817 	ldw	r3,-32(fp)
 4041178:	1880090e 	bge	r3,r2,40411a0 <processEdgeDetection+0x270>
			*(output+2+pixel) = maxValue;
 404117c:	e0bffb17 	ldw	r2,-20(fp)
 4041180:	10800084 	addi	r2,r2,2
 4041184:	1085883a 	add	r2,r2,r2
 4041188:	1085883a 	add	r2,r2,r2
 404118c:	1007883a 	mov	r3,r2
 4041190:	e0bffc17 	ldw	r2,-16(fp)
 4041194:	10c5883a 	add	r2,r2,r3
 4041198:	e0fff817 	ldw	r3,-32(fp)
 404119c:	10c00015 	stw	r3,0(r2)
	}

	// Perform Threshold
	maxValue = maxValue/2;
	if (maxValue > 15) maxValue = 15;
	for (int pixel = 0; pixel<numPixels; pixel++) {
 40411a0:	e0bffb17 	ldw	r2,-20(fp)
 40411a4:	10800044 	addi	r2,r2,1
 40411a8:	e0bffb15 	stw	r2,-20(fp)
 40411ac:	e0fffb17 	ldw	r3,-20(fp)
 40411b0:	e0bfff17 	ldw	r2,-4(fp)
 40411b4:	18bfe716 	blt	r3,r2,4041154 <__flash_rwdata_start+0xfffe6a24>
			*(output+2+pixel) = maxValue;
		}
	}

	// Free memory holding any convolutions as they are no longer required
	free(conv1);
 40411b8:	e13ffd17 	ldw	r4,-12(fp)
 40411bc:	40430800 	call	4043080 <free>
	if (conv2 != NULL) {
 40411c0:	e0bffe17 	ldw	r2,-8(fp)
 40411c4:	10000226 	beq	r2,zero,40411d0 <processEdgeDetection+0x2a0>
		free(conv2);
 40411c8:	e13ffe17 	ldw	r4,-8(fp)
 40411cc:	40430800 	call	4043080 <free>
	}
	// Return the memory location with the processed image
	return output;
 40411d0:	e0bffc17 	ldw	r2,-16(fp)
}
 40411d4:	e037883a 	mov	sp,fp
 40411d8:	dfc00117 	ldw	ra,4(sp)
 40411dc:	df000017 	ldw	fp,0(sp)
 40411e0:	dec00204 	addi	sp,sp,8
 40411e4:	f800283a 	ret

040411e8 <fastEdgeDetection>:

int* fastEdgeDetection(int* imageArray, int cols, int rows) {
 40411e8:	defff304 	addi	sp,sp,-52
 40411ec:	dfc00c15 	stw	ra,48(sp)
 40411f0:	df000b15 	stw	fp,44(sp)
 40411f4:	df000b04 	addi	fp,sp,44
 40411f8:	e13ffd15 	stw	r4,-12(fp)
 40411fc:	e17ffe15 	stw	r5,-8(fp)
 4041200:	e1bfff15 	stw	r6,-4(fp)
	// Allocate memory for reversed image
	int* output = (int*)malloc(((cols)*(rows)+2)*sizeof(int));
 4041204:	e0fffe17 	ldw	r3,-8(fp)
 4041208:	e0bfff17 	ldw	r2,-4(fp)
 404120c:	1885383a 	mul	r2,r3,r2
 4041210:	10800084 	addi	r2,r2,2
 4041214:	1085883a 	add	r2,r2,r2
 4041218:	1085883a 	add	r2,r2,r2
 404121c:	1009883a 	mov	r4,r2
 4041220:	404306c0 	call	404306c <malloc>
 4041224:	e0bff815 	stw	r2,-32(fp)
	*(output) = cols;
 4041228:	e0bff817 	ldw	r2,-32(fp)
 404122c:	e0fffe17 	ldw	r3,-8(fp)
 4041230:	10c00015 	stw	r3,0(r2)
	*(output+1) = rows;
 4041234:	e0bff817 	ldw	r2,-32(fp)
 4041238:	10800104 	addi	r2,r2,4
 404123c:	e0ffff17 	ldw	r3,-4(fp)
 4041240:	10c00015 	stw	r3,0(r2)
	// Iterate through each row/column and get the relevant pixel, perform the fast conv
	int offset[3];
	int pixelValue;

	// Go through all pixels
	int writeIndex = 0;
 4041244:	e03ff515 	stw	zero,-44(fp)
	for (int row = -1; row < rows-1; row++){
 4041248:	00bfffc4 	movi	r2,-1
 404124c:	e0bff615 	stw	r2,-40(fp)
 4041250:	0000cc06 	br	4041584 <fastEdgeDetection+0x39c>
		for (int col = -1; col < cols-1; col++){
 4041254:	00bfffc4 	movi	r2,-1
 4041258:	e0bff715 	stw	r2,-36(fp)
 404125c:	0000c206 	br	4041568 <fastEdgeDetection+0x380>
			if ((row == -1) || (row == rows-2) || (col == -1) || (col == cols-2)) {
 4041260:	e0bff617 	ldw	r2,-40(fp)
 4041264:	10bfffe0 	cmpeqi	r2,r2,-1
 4041268:	10000b1e 	bne	r2,zero,4041298 <fastEdgeDetection+0xb0>
 404126c:	e0bfff17 	ldw	r2,-4(fp)
 4041270:	10ffff84 	addi	r3,r2,-2
 4041274:	e0bff617 	ldw	r2,-40(fp)
 4041278:	18800726 	beq	r3,r2,4041298 <fastEdgeDetection+0xb0>
 404127c:	e0bff717 	ldw	r2,-36(fp)
 4041280:	10bfffe0 	cmpeqi	r2,r2,-1
 4041284:	1000041e 	bne	r2,zero,4041298 <fastEdgeDetection+0xb0>
 4041288:	e0bffe17 	ldw	r2,-8(fp)
 404128c:	10ffff84 	addi	r3,r2,-2
 4041290:	e0bff717 	ldw	r2,-36(fp)
 4041294:	18800c1e 	bne	r3,r2,40412c8 <fastEdgeDetection+0xe0>
				// Skip This loop for padding
				*(output+2+writeIndex) = 0;
 4041298:	e0bff517 	ldw	r2,-44(fp)
 404129c:	10800084 	addi	r2,r2,2
 40412a0:	1085883a 	add	r2,r2,r2
 40412a4:	1085883a 	add	r2,r2,r2
 40412a8:	1007883a 	mov	r3,r2
 40412ac:	e0bff817 	ldw	r2,-32(fp)
 40412b0:	10c5883a 	add	r2,r2,r3
 40412b4:	10000015 	stw	zero,0(r2)
				writeIndex++;
 40412b8:	e0bff517 	ldw	r2,-44(fp)
 40412bc:	10800044 	addi	r2,r2,1
 40412c0:	e0bff515 	stw	r2,-44(fp)
				continue;
 40412c4:	0000a506 	br	404155c <fastEdgeDetection+0x374>
			}
			offset[0] = col+row*cols; 		// Calculate pixel offset row1
 40412c8:	e0fff617 	ldw	r3,-40(fp)
 40412cc:	e0bffe17 	ldw	r2,-8(fp)
 40412d0:	1887383a 	mul	r3,r3,r2
 40412d4:	e0bff717 	ldw	r2,-36(fp)
 40412d8:	1885883a 	add	r2,r3,r2
 40412dc:	e0bffa15 	stw	r2,-24(fp)
			offset[1] = col+(row+1)*cols;	// Calculate pixel offset row2
 40412e0:	e0bff617 	ldw	r2,-40(fp)
 40412e4:	10c00044 	addi	r3,r2,1
 40412e8:	e0bffe17 	ldw	r2,-8(fp)
 40412ec:	1887383a 	mul	r3,r3,r2
 40412f0:	e0bff717 	ldw	r2,-36(fp)
 40412f4:	1885883a 	add	r2,r3,r2
 40412f8:	e0bffb15 	stw	r2,-20(fp)
			offset[2] = col+(row+2)*cols;	// Calculate pixel offset row3
 40412fc:	e0bff617 	ldw	r2,-40(fp)
 4041300:	10c00084 	addi	r3,r2,2
 4041304:	e0bffe17 	ldw	r2,-8(fp)
 4041308:	1887383a 	mul	r3,r3,r2
 404130c:	e0bff717 	ldw	r2,-36(fp)
 4041310:	1885883a 	add	r2,r3,r2
 4041314:	e0bffc15 	stw	r2,-16(fp)
			// Calculate Vertical Edges
			pixelValue = (*(imageArray+offset[0])   + *(imageArray+offset[0]+2)- *(imageArray+offset[2]) - *(imageArray+offset[2]+2));
 4041318:	e0bffa17 	ldw	r2,-24(fp)
 404131c:	1085883a 	add	r2,r2,r2
 4041320:	1085883a 	add	r2,r2,r2
 4041324:	1007883a 	mov	r3,r2
 4041328:	e0bffd17 	ldw	r2,-12(fp)
 404132c:	10c5883a 	add	r2,r2,r3
 4041330:	10c00017 	ldw	r3,0(r2)
 4041334:	e0bffa17 	ldw	r2,-24(fp)
 4041338:	10800084 	addi	r2,r2,2
 404133c:	1085883a 	add	r2,r2,r2
 4041340:	1085883a 	add	r2,r2,r2
 4041344:	1009883a 	mov	r4,r2
 4041348:	e0bffd17 	ldw	r2,-12(fp)
 404134c:	1105883a 	add	r2,r2,r4
 4041350:	10800017 	ldw	r2,0(r2)
 4041354:	1887883a 	add	r3,r3,r2
 4041358:	e0bffc17 	ldw	r2,-16(fp)
 404135c:	1085883a 	add	r2,r2,r2
 4041360:	1085883a 	add	r2,r2,r2
 4041364:	1009883a 	mov	r4,r2
 4041368:	e0bffd17 	ldw	r2,-12(fp)
 404136c:	1105883a 	add	r2,r2,r4
 4041370:	10800017 	ldw	r2,0(r2)
 4041374:	1887c83a 	sub	r3,r3,r2
 4041378:	e0bffc17 	ldw	r2,-16(fp)
 404137c:	10800084 	addi	r2,r2,2
 4041380:	1085883a 	add	r2,r2,r2
 4041384:	1085883a 	add	r2,r2,r2
 4041388:	1009883a 	mov	r4,r2
 404138c:	e0bffd17 	ldw	r2,-12(fp)
 4041390:	1105883a 	add	r2,r2,r4
 4041394:	10800017 	ldw	r2,0(r2)
 4041398:	1885c83a 	sub	r2,r3,r2
 404139c:	e0bff915 	stw	r2,-28(fp)
			pixelValue += (*(imageArray+offset[0]+1) - *(imageArray+offset[2]+1)) << 1;
 40413a0:	e0bffa17 	ldw	r2,-24(fp)
 40413a4:	10800044 	addi	r2,r2,1
 40413a8:	1085883a 	add	r2,r2,r2
 40413ac:	1085883a 	add	r2,r2,r2
 40413b0:	1007883a 	mov	r3,r2
 40413b4:	e0bffd17 	ldw	r2,-12(fp)
 40413b8:	10c5883a 	add	r2,r2,r3
 40413bc:	10c00017 	ldw	r3,0(r2)
 40413c0:	e0bffc17 	ldw	r2,-16(fp)
 40413c4:	10800044 	addi	r2,r2,1
 40413c8:	1085883a 	add	r2,r2,r2
 40413cc:	1085883a 	add	r2,r2,r2
 40413d0:	1009883a 	mov	r4,r2
 40413d4:	e0bffd17 	ldw	r2,-12(fp)
 40413d8:	1105883a 	add	r2,r2,r4
 40413dc:	10800017 	ldw	r2,0(r2)
 40413e0:	1885c83a 	sub	r2,r3,r2
 40413e4:	1085883a 	add	r2,r2,r2
 40413e8:	1007883a 	mov	r3,r2
 40413ec:	e0bff917 	ldw	r2,-28(fp)
 40413f0:	10c5883a 	add	r2,r2,r3
 40413f4:	e0bff915 	stw	r2,-28(fp)
			// Force to be positive
			pixelValue = abs(pixelValue);
 40413f8:	e0bff917 	ldw	r2,-28(fp)
 40413fc:	1000010e 	bge	r2,zero,4041404 <fastEdgeDetection+0x21c>
 4041400:	0085c83a 	sub	r2,zero,r2
 4041404:	e0bff915 	stw	r2,-28(fp)

			// Calculate Horizontal Edges
			pixelValue += (*(imageArray+offset[0])   + *(imageArray+offset[2])  - *(imageArray+offset[0]+2) - *(imageArray+offset[2]+2));
 4041408:	e0bffa17 	ldw	r2,-24(fp)
 404140c:	1085883a 	add	r2,r2,r2
 4041410:	1085883a 	add	r2,r2,r2
 4041414:	1007883a 	mov	r3,r2
 4041418:	e0bffd17 	ldw	r2,-12(fp)
 404141c:	10c5883a 	add	r2,r2,r3
 4041420:	10c00017 	ldw	r3,0(r2)
 4041424:	e0bffc17 	ldw	r2,-16(fp)
 4041428:	1085883a 	add	r2,r2,r2
 404142c:	1085883a 	add	r2,r2,r2
 4041430:	1009883a 	mov	r4,r2
 4041434:	e0bffd17 	ldw	r2,-12(fp)
 4041438:	1105883a 	add	r2,r2,r4
 404143c:	10800017 	ldw	r2,0(r2)
 4041440:	1887883a 	add	r3,r3,r2
 4041444:	e0bffa17 	ldw	r2,-24(fp)
 4041448:	10800084 	addi	r2,r2,2
 404144c:	1085883a 	add	r2,r2,r2
 4041450:	1085883a 	add	r2,r2,r2
 4041454:	1009883a 	mov	r4,r2
 4041458:	e0bffd17 	ldw	r2,-12(fp)
 404145c:	1105883a 	add	r2,r2,r4
 4041460:	10800017 	ldw	r2,0(r2)
 4041464:	1887c83a 	sub	r3,r3,r2
 4041468:	e0bffc17 	ldw	r2,-16(fp)
 404146c:	10800084 	addi	r2,r2,2
 4041470:	1085883a 	add	r2,r2,r2
 4041474:	1085883a 	add	r2,r2,r2
 4041478:	1009883a 	mov	r4,r2
 404147c:	e0bffd17 	ldw	r2,-12(fp)
 4041480:	1105883a 	add	r2,r2,r4
 4041484:	10800017 	ldw	r2,0(r2)
 4041488:	1885c83a 	sub	r2,r3,r2
 404148c:	e0fff917 	ldw	r3,-28(fp)
 4041490:	1885883a 	add	r2,r3,r2
 4041494:	e0bff915 	stw	r2,-28(fp)
			pixelValue += (*(imageArray+offset[1])   - *(imageArray+offset[1]+2)) << 1;
 4041498:	e0bffb17 	ldw	r2,-20(fp)
 404149c:	1085883a 	add	r2,r2,r2
 40414a0:	1085883a 	add	r2,r2,r2
 40414a4:	1007883a 	mov	r3,r2
 40414a8:	e0bffd17 	ldw	r2,-12(fp)
 40414ac:	10c5883a 	add	r2,r2,r3
 40414b0:	10c00017 	ldw	r3,0(r2)
 40414b4:	e0bffb17 	ldw	r2,-20(fp)
 40414b8:	10800084 	addi	r2,r2,2
 40414bc:	1085883a 	add	r2,r2,r2
 40414c0:	1085883a 	add	r2,r2,r2
 40414c4:	1009883a 	mov	r4,r2
 40414c8:	e0bffd17 	ldw	r2,-12(fp)
 40414cc:	1105883a 	add	r2,r2,r4
 40414d0:	10800017 	ldw	r2,0(r2)
 40414d4:	1885c83a 	sub	r2,r3,r2
 40414d8:	1085883a 	add	r2,r2,r2
 40414dc:	1007883a 	mov	r3,r2
 40414e0:	e0bff917 	ldw	r2,-28(fp)
 40414e4:	10c5883a 	add	r2,r2,r3
 40414e8:	e0bff915 	stw	r2,-28(fp)
			// Force to be positive
			pixelValue = abs(pixelValue);
 40414ec:	e0bff917 	ldw	r2,-28(fp)
 40414f0:	1000010e 	bge	r2,zero,40414f8 <fastEdgeDetection+0x310>
 40414f4:	0085c83a 	sub	r2,zero,r2
 40414f8:	e0bff915 	stw	r2,-28(fp)

			// Perform Thresholding
			if (pixelValue > 7) {
 40414fc:	e0bff917 	ldw	r2,-28(fp)
 4041500:	10800210 	cmplti	r2,r2,8
 4041504:	10000a1e 	bne	r2,zero,4041530 <fastEdgeDetection+0x348>
				*(output+2+writeIndex) = 15; // Set as edge
 4041508:	e0bff517 	ldw	r2,-44(fp)
 404150c:	10800084 	addi	r2,r2,2
 4041510:	1085883a 	add	r2,r2,r2
 4041514:	1085883a 	add	r2,r2,r2
 4041518:	1007883a 	mov	r3,r2
 404151c:	e0bff817 	ldw	r2,-32(fp)
 4041520:	10c5883a 	add	r2,r2,r3
 4041524:	00c003c4 	movi	r3,15
 4041528:	10c00015 	stw	r3,0(r2)
 404152c:	00000806 	br	4041550 <fastEdgeDetection+0x368>
			} else {
				*(output+2+writeIndex) = 0; // Not an edge
 4041530:	e0bff517 	ldw	r2,-44(fp)
 4041534:	10800084 	addi	r2,r2,2
 4041538:	1085883a 	add	r2,r2,r2
 404153c:	1085883a 	add	r2,r2,r2
 4041540:	1007883a 	mov	r3,r2
 4041544:	e0bff817 	ldw	r2,-32(fp)
 4041548:	10c5883a 	add	r2,r2,r3
 404154c:	10000015 	stw	zero,0(r2)
			}
			writeIndex++;
 4041550:	e0bff517 	ldw	r2,-44(fp)
 4041554:	10800044 	addi	r2,r2,1
 4041558:	e0bff515 	stw	r2,-44(fp)
	int pixelValue;

	// Go through all pixels
	int writeIndex = 0;
	for (int row = -1; row < rows-1; row++){
		for (int col = -1; col < cols-1; col++){
 404155c:	e0bff717 	ldw	r2,-36(fp)
 4041560:	10800044 	addi	r2,r2,1
 4041564:	e0bff715 	stw	r2,-36(fp)
 4041568:	e0bffe17 	ldw	r2,-8(fp)
 404156c:	10bfffc4 	addi	r2,r2,-1
 4041570:	e0fff717 	ldw	r3,-36(fp)
 4041574:	18bf3a16 	blt	r3,r2,4041260 <__flash_rwdata_start+0xfffe6b30>
	int offset[3];
	int pixelValue;

	// Go through all pixels
	int writeIndex = 0;
	for (int row = -1; row < rows-1; row++){
 4041578:	e0bff617 	ldw	r2,-40(fp)
 404157c:	10800044 	addi	r2,r2,1
 4041580:	e0bff615 	stw	r2,-40(fp)
 4041584:	e0bfff17 	ldw	r2,-4(fp)
 4041588:	10bfffc4 	addi	r2,r2,-1
 404158c:	e0fff617 	ldw	r3,-40(fp)
 4041590:	18bf3016 	blt	r3,r2,4041254 <__flash_rwdata_start+0xfffe6b24>
			writeIndex++;
		}
	}

	// Return the memory location with the Edge Detected image
	return output;
 4041594:	e0bff817 	ldw	r2,-32(fp)
}
 4041598:	e037883a 	mov	sp,fp
 404159c:	dfc00117 	ldw	ra,4(sp)
 40415a0:	df000017 	ldw	fp,0(sp)
 40415a4:	dec00204 	addi	sp,sp,8
 40415a8:	f800283a 	ret

040415ac <blurImgConv>:

int* blurImgConv(int* imageArray, int cols, int rows) {
 40415ac:	deffe904 	addi	sp,sp,-92
 40415b0:	dfc01615 	stw	ra,88(sp)
 40415b4:	df001515 	stw	fp,84(sp)
 40415b8:	dc001415 	stw	r16,80(sp)
 40415bc:	df001504 	addi	fp,sp,84
 40415c0:	e13ffc15 	stw	r4,-16(fp)
 40415c4:	e17ffd15 	stw	r5,-12(fp)
 40415c8:	e1bffe15 	stw	r6,-8(fp)
	// This requests a new block of memory to put our image
	// Free this afterwards or we will have a memory leak!
	int* output = (int*)malloc(((cols)*(rows)+2)*sizeof(int));
 40415cc:	e0fffd17 	ldw	r3,-12(fp)
 40415d0:	e0bffe17 	ldw	r2,-8(fp)
 40415d4:	1885383a 	mul	r2,r3,r2
 40415d8:	10800084 	addi	r2,r2,2
 40415dc:	1085883a 	add	r2,r2,r2
 40415e0:	1085883a 	add	r2,r2,r2
 40415e4:	1009883a 	mov	r4,r2
 40415e8:	404306c0 	call	404306c <malloc>
 40415ec:	e0bfee15 	stw	r2,-72(fp)
	*(output) = cols;
 40415f0:	e0bfee17 	ldw	r2,-72(fp)
 40415f4:	e0fffd17 	ldw	r3,-12(fp)
 40415f8:	10c00015 	stw	r3,0(r2)
	*(output+1) = rows;
 40415fc:	e0bfee17 	ldw	r2,-72(fp)
 4041600:	10800104 	addi	r2,r2,4
 4041604:	e0fffe17 	ldw	r3,-8(fp)
 4041608:	10c00015 	stw	r3,0(r2)
	// Iterate through each row/column and get the relevant pixel, perform the conv
	int patch[9];
	int offset[3];

	int bytesToCopy = sizeof(int)*3;
 404160c:	00800304 	movi	r2,12
 4041610:	e0bfef15 	stw	r2,-68(fp)
	int writeIndex = 0;
 4041614:	e03feb15 	stw	zero,-84(fp)
	for (int row = -1; row < rows-1; row++){
 4041618:	00bfffc4 	movi	r2,-1
 404161c:	e0bfec15 	stw	r2,-80(fp)
 4041620:	00007306 	br	40417f0 <blurImgConv+0x244>
		for (int col = -1; col < cols-1; col++){
 4041624:	00bfffc4 	movi	r2,-1
 4041628:	e0bfed15 	stw	r2,-76(fp)
 404162c:	00006906 	br	40417d4 <blurImgConv+0x228>
			if ((row == -1) || (row == rows-2) || (col == -1) || (col == cols-2)) {
 4041630:	e0bfec17 	ldw	r2,-80(fp)
 4041634:	10bfffe0 	cmpeqi	r2,r2,-1
 4041638:	10000b1e 	bne	r2,zero,4041668 <blurImgConv+0xbc>
 404163c:	e0bffe17 	ldw	r2,-8(fp)
 4041640:	10ffff84 	addi	r3,r2,-2
 4041644:	e0bfec17 	ldw	r2,-80(fp)
 4041648:	18800726 	beq	r3,r2,4041668 <blurImgConv+0xbc>
 404164c:	e0bfed17 	ldw	r2,-76(fp)
 4041650:	10bfffe0 	cmpeqi	r2,r2,-1
 4041654:	1000041e 	bne	r2,zero,4041668 <blurImgConv+0xbc>
 4041658:	e0bffd17 	ldw	r2,-12(fp)
 404165c:	10ffff84 	addi	r3,r2,-2
 4041660:	e0bfed17 	ldw	r2,-76(fp)
 4041664:	18800c1e 	bne	r3,r2,4041698 <blurImgConv+0xec>
				// Skip This loop for padding
				*(output+2+writeIndex) = 0;
 4041668:	e0bfeb17 	ldw	r2,-84(fp)
 404166c:	10800084 	addi	r2,r2,2
 4041670:	1085883a 	add	r2,r2,r2
 4041674:	1085883a 	add	r2,r2,r2
 4041678:	1007883a 	mov	r3,r2
 404167c:	e0bfee17 	ldw	r2,-72(fp)
 4041680:	10c5883a 	add	r2,r2,r3
 4041684:	10000015 	stw	zero,0(r2)
				writeIndex++;
 4041688:	e0bfeb17 	ldw	r2,-84(fp)
 404168c:	10800044 	addi	r2,r2,1
 4041690:	e0bfeb15 	stw	r2,-84(fp)
				continue;
 4041694:	00004c06 	br	40417c8 <blurImgConv+0x21c>
			}
			offset[0] = col+row*cols; 		// Calculate pixel offset row1
 4041698:	e0ffec17 	ldw	r3,-80(fp)
 404169c:	e0bffd17 	ldw	r2,-12(fp)
 40416a0:	1887383a 	mul	r3,r3,r2
 40416a4:	e0bfed17 	ldw	r2,-76(fp)
 40416a8:	1885883a 	add	r2,r3,r2
 40416ac:	e0bff915 	stw	r2,-28(fp)
			offset[1] = col+(row+1)*cols;	// Calculate pixel offset row2
 40416b0:	e0bfec17 	ldw	r2,-80(fp)
 40416b4:	10c00044 	addi	r3,r2,1
 40416b8:	e0bffd17 	ldw	r2,-12(fp)
 40416bc:	1887383a 	mul	r3,r3,r2
 40416c0:	e0bfed17 	ldw	r2,-76(fp)
 40416c4:	1885883a 	add	r2,r3,r2
 40416c8:	e0bffa15 	stw	r2,-24(fp)
			offset[2] = col+(row+2)*cols;	// Calculate pixel offset row3
 40416cc:	e0bfec17 	ldw	r2,-80(fp)
 40416d0:	10c00084 	addi	r3,r2,2
 40416d4:	e0bffd17 	ldw	r2,-12(fp)
 40416d8:	1887383a 	mul	r3,r3,r2
 40416dc:	e0bfed17 	ldw	r2,-76(fp)
 40416e0:	1885883a 	add	r2,r3,r2
 40416e4:	e0bffb15 	stw	r2,-20(fp)
			memcpy(patch,imageArray+offset[0],bytesToCopy); // Copy first row to patch
 40416e8:	e0bff917 	ldw	r2,-28(fp)
 40416ec:	1085883a 	add	r2,r2,r2
 40416f0:	1085883a 	add	r2,r2,r2
 40416f4:	1007883a 	mov	r3,r2
 40416f8:	e0bffc17 	ldw	r2,-16(fp)
 40416fc:	10c7883a 	add	r3,r2,r3
 4041700:	e13fef17 	ldw	r4,-68(fp)
 4041704:	e0bff004 	addi	r2,fp,-64
 4041708:	200d883a 	mov	r6,r4
 404170c:	180b883a 	mov	r5,r3
 4041710:	1009883a 	mov	r4,r2
 4041714:	40438a00 	call	40438a0 <memcpy>
			memcpy(patch+3,imageArray+offset[1],bytesToCopy); // Copy second row to patch
 4041718:	e0bff004 	addi	r2,fp,-64
 404171c:	10800304 	addi	r2,r2,12
 4041720:	e0fffa17 	ldw	r3,-24(fp)
 4041724:	18c7883a 	add	r3,r3,r3
 4041728:	18c7883a 	add	r3,r3,r3
 404172c:	1809883a 	mov	r4,r3
 4041730:	e0fffc17 	ldw	r3,-16(fp)
 4041734:	1907883a 	add	r3,r3,r4
 4041738:	e13fef17 	ldw	r4,-68(fp)
 404173c:	200d883a 	mov	r6,r4
 4041740:	180b883a 	mov	r5,r3
 4041744:	1009883a 	mov	r4,r2
 4041748:	40438a00 	call	40438a0 <memcpy>
			memcpy(patch+6,imageArray+offset[2],bytesToCopy); // Copy second row to patch
 404174c:	e0bff004 	addi	r2,fp,-64
 4041750:	10800604 	addi	r2,r2,24
 4041754:	e0fffb17 	ldw	r3,-20(fp)
 4041758:	18c7883a 	add	r3,r3,r3
 404175c:	18c7883a 	add	r3,r3,r3
 4041760:	1809883a 	mov	r4,r3
 4041764:	e0fffc17 	ldw	r3,-16(fp)
 4041768:	1907883a 	add	r3,r3,r4
 404176c:	e13fef17 	ldw	r4,-68(fp)
 4041770:	200d883a 	mov	r6,r4
 4041774:	180b883a 	mov	r5,r3
 4041778:	1009883a 	mov	r4,r2
 404177c:	40438a00 	call	40438a0 <memcpy>
			*(output+2+writeIndex) = conv(patch,kernBlur3x,3,9); // Calculate convolution
 4041780:	e0bfeb17 	ldw	r2,-84(fp)
 4041784:	10800084 	addi	r2,r2,2
 4041788:	1085883a 	add	r2,r2,r2
 404178c:	1085883a 	add	r2,r2,r2
 4041790:	1007883a 	mov	r3,r2
 4041794:	e0bfee17 	ldw	r2,-72(fp)
 4041798:	10e1883a 	add	r16,r2,r3
 404179c:	e0bff004 	addi	r2,fp,-64
 40417a0:	01c00244 	movi	r7,9
 40417a4:	018000c4 	movi	r6,3
 40417a8:	01408034 	movhi	r5,512
 40417ac:	2941af04 	addi	r5,r5,1724
 40417b0:	1009883a 	mov	r4,r2
 40417b4:	40409a00 	call	40409a0 <conv>
 40417b8:	80800015 	stw	r2,0(r16)
			writeIndex++;
 40417bc:	e0bfeb17 	ldw	r2,-84(fp)
 40417c0:	10800044 	addi	r2,r2,1
 40417c4:	e0bfeb15 	stw	r2,-84(fp)
	int offset[3];

	int bytesToCopy = sizeof(int)*3;
	int writeIndex = 0;
	for (int row = -1; row < rows-1; row++){
		for (int col = -1; col < cols-1; col++){
 40417c8:	e0bfed17 	ldw	r2,-76(fp)
 40417cc:	10800044 	addi	r2,r2,1
 40417d0:	e0bfed15 	stw	r2,-76(fp)
 40417d4:	e0bffd17 	ldw	r2,-12(fp)
 40417d8:	10bfffc4 	addi	r2,r2,-1
 40417dc:	e0ffed17 	ldw	r3,-76(fp)
 40417e0:	18bf9316 	blt	r3,r2,4041630 <__flash_rwdata_start+0xfffe6f00>
	int patch[9];
	int offset[3];

	int bytesToCopy = sizeof(int)*3;
	int writeIndex = 0;
	for (int row = -1; row < rows-1; row++){
 40417e4:	e0bfec17 	ldw	r2,-80(fp)
 40417e8:	10800044 	addi	r2,r2,1
 40417ec:	e0bfec15 	stw	r2,-80(fp)
 40417f0:	e0bffe17 	ldw	r2,-8(fp)
 40417f4:	10bfffc4 	addi	r2,r2,-1
 40417f8:	e0ffec17 	ldw	r3,-80(fp)
 40417fc:	18bf8916 	blt	r3,r2,4041624 <__flash_rwdata_start+0xfffe6ef4>
			*(output+2+writeIndex) = conv(patch,kernBlur3x,3,9); // Calculate convolution
			writeIndex++;
		}
	}
	// Return the memory location with the blurred image
	return output;
 4041800:	e0bfee17 	ldw	r2,-72(fp)
}
 4041804:	e6ffff04 	addi	sp,fp,-4
 4041808:	dfc00217 	ldw	ra,8(sp)
 404180c:	df000117 	ldw	fp,4(sp)
 4041810:	dc000017 	ldw	r16,0(sp)
 4041814:	dec00304 	addi	sp,sp,12
 4041818:	f800283a 	ret

0404181c <fastBlurImg>:

int* fastBlurImg(int* imageArray, int cols, int rows) {
 404181c:	defff304 	addi	sp,sp,-52
 4041820:	dfc00c15 	stw	ra,48(sp)
 4041824:	df000b15 	stw	fp,44(sp)
 4041828:	df000b04 	addi	fp,sp,44
 404182c:	e13ffd15 	stw	r4,-12(fp)
 4041830:	e17ffe15 	stw	r5,-8(fp)
 4041834:	e1bfff15 	stw	r6,-4(fp)
	// This requests a new block of memory to put our image
	// Free this afterwards or we will have a memory leak!
	int* output = (int*)malloc(((cols)*(rows)+2)*sizeof(int));
 4041838:	e0fffe17 	ldw	r3,-8(fp)
 404183c:	e0bfff17 	ldw	r2,-4(fp)
 4041840:	1885383a 	mul	r2,r3,r2
 4041844:	10800084 	addi	r2,r2,2
 4041848:	1085883a 	add	r2,r2,r2
 404184c:	1085883a 	add	r2,r2,r2
 4041850:	1009883a 	mov	r4,r2
 4041854:	404306c0 	call	404306c <malloc>
 4041858:	e0bff815 	stw	r2,-32(fp)
	*(output) = cols;
 404185c:	e0bff817 	ldw	r2,-32(fp)
 4041860:	e0fffe17 	ldw	r3,-8(fp)
 4041864:	10c00015 	stw	r3,0(r2)
	*(output+1) = rows;
 4041868:	e0bff817 	ldw	r2,-32(fp)
 404186c:	10800104 	addi	r2,r2,4
 4041870:	e0ffff17 	ldw	r3,-4(fp)
 4041874:	10c00015 	stw	r3,0(r2)
	// Iterate through each row/column and get the relevant pixel, perform the conv
	int offset[3];
	int res;

	int writeIndex = 0;
 4041878:	e03ff515 	stw	zero,-44(fp)
	for (int row = -1; row < rows-1; row++){
 404187c:	00bfffc4 	movi	r2,-1
 4041880:	e0bff615 	stw	r2,-40(fp)
 4041884:	0000a006 	br	4041b08 <fastBlurImg+0x2ec>
		for (int col = -1; col < cols-1; col++){
 4041888:	00bfffc4 	movi	r2,-1
 404188c:	e0bff715 	stw	r2,-36(fp)
 4041890:	00009606 	br	4041aec <fastBlurImg+0x2d0>
			if ((row == -1) || (row == rows-2) || (col == -1) || (col == cols-2)) {
 4041894:	e0bff617 	ldw	r2,-40(fp)
 4041898:	10bfffe0 	cmpeqi	r2,r2,-1
 404189c:	10000b1e 	bne	r2,zero,40418cc <fastBlurImg+0xb0>
 40418a0:	e0bfff17 	ldw	r2,-4(fp)
 40418a4:	10ffff84 	addi	r3,r2,-2
 40418a8:	e0bff617 	ldw	r2,-40(fp)
 40418ac:	18800726 	beq	r3,r2,40418cc <fastBlurImg+0xb0>
 40418b0:	e0bff717 	ldw	r2,-36(fp)
 40418b4:	10bfffe0 	cmpeqi	r2,r2,-1
 40418b8:	1000041e 	bne	r2,zero,40418cc <fastBlurImg+0xb0>
 40418bc:	e0bffe17 	ldw	r2,-8(fp)
 40418c0:	10ffff84 	addi	r3,r2,-2
 40418c4:	e0bff717 	ldw	r2,-36(fp)
 40418c8:	18800c1e 	bne	r3,r2,40418fc <fastBlurImg+0xe0>
				// Skip This loop for padding
				*(output+2+writeIndex) = 0;
 40418cc:	e0bff517 	ldw	r2,-44(fp)
 40418d0:	10800084 	addi	r2,r2,2
 40418d4:	1085883a 	add	r2,r2,r2
 40418d8:	1085883a 	add	r2,r2,r2
 40418dc:	1007883a 	mov	r3,r2
 40418e0:	e0bff817 	ldw	r2,-32(fp)
 40418e4:	10c5883a 	add	r2,r2,r3
 40418e8:	10000015 	stw	zero,0(r2)
				writeIndex++;
 40418ec:	e0bff517 	ldw	r2,-44(fp)
 40418f0:	10800044 	addi	r2,r2,1
 40418f4:	e0bff515 	stw	r2,-44(fp)
				continue;
 40418f8:	00007906 	br	4041ae0 <fastBlurImg+0x2c4>
			}
			offset[0] = col+row*cols; 		// Calculate pixel offset row1
 40418fc:	e0fff617 	ldw	r3,-40(fp)
 4041900:	e0bffe17 	ldw	r2,-8(fp)
 4041904:	1887383a 	mul	r3,r3,r2
 4041908:	e0bff717 	ldw	r2,-36(fp)
 404190c:	1885883a 	add	r2,r3,r2
 4041910:	e0bffa15 	stw	r2,-24(fp)
			offset[1] = col+(row+1)*cols;	// Calculate pixel offset row2
 4041914:	e0bff617 	ldw	r2,-40(fp)
 4041918:	10c00044 	addi	r3,r2,1
 404191c:	e0bffe17 	ldw	r2,-8(fp)
 4041920:	1887383a 	mul	r3,r3,r2
 4041924:	e0bff717 	ldw	r2,-36(fp)
 4041928:	1885883a 	add	r2,r3,r2
 404192c:	e0bffb15 	stw	r2,-20(fp)
			offset[2] = col+(row+2)*cols;	// Calculate pixel offset row3
 4041930:	e0bff617 	ldw	r2,-40(fp)
 4041934:	10c00084 	addi	r3,r2,2
 4041938:	e0bffe17 	ldw	r2,-8(fp)
 404193c:	1887383a 	mul	r3,r3,r2
 4041940:	e0bff717 	ldw	r2,-36(fp)
 4041944:	1885883a 	add	r2,r3,r2
 4041948:	e0bffc15 	stw	r2,-16(fp)
			res  = *(imageArray+offset[0]) + *(imageArray+offset[0]+1) + *(imageArray+offset[0]+2);
 404194c:	e0bffa17 	ldw	r2,-24(fp)
 4041950:	1085883a 	add	r2,r2,r2
 4041954:	1085883a 	add	r2,r2,r2
 4041958:	1007883a 	mov	r3,r2
 404195c:	e0bffd17 	ldw	r2,-12(fp)
 4041960:	10c5883a 	add	r2,r2,r3
 4041964:	10c00017 	ldw	r3,0(r2)
 4041968:	e0bffa17 	ldw	r2,-24(fp)
 404196c:	10800044 	addi	r2,r2,1
 4041970:	1085883a 	add	r2,r2,r2
 4041974:	1085883a 	add	r2,r2,r2
 4041978:	1009883a 	mov	r4,r2
 404197c:	e0bffd17 	ldw	r2,-12(fp)
 4041980:	1105883a 	add	r2,r2,r4
 4041984:	10800017 	ldw	r2,0(r2)
 4041988:	1887883a 	add	r3,r3,r2
 404198c:	e0bffa17 	ldw	r2,-24(fp)
 4041990:	10800084 	addi	r2,r2,2
 4041994:	1085883a 	add	r2,r2,r2
 4041998:	1085883a 	add	r2,r2,r2
 404199c:	1009883a 	mov	r4,r2
 40419a0:	e0bffd17 	ldw	r2,-12(fp)
 40419a4:	1105883a 	add	r2,r2,r4
 40419a8:	10800017 	ldw	r2,0(r2)
 40419ac:	1885883a 	add	r2,r3,r2
 40419b0:	e0bff915 	stw	r2,-28(fp)
			res += *(imageArray+offset[1]) + *(imageArray+offset[1]+1) + *(imageArray+offset[1]+2);
 40419b4:	e0bffb17 	ldw	r2,-20(fp)
 40419b8:	1085883a 	add	r2,r2,r2
 40419bc:	1085883a 	add	r2,r2,r2
 40419c0:	1007883a 	mov	r3,r2
 40419c4:	e0bffd17 	ldw	r2,-12(fp)
 40419c8:	10c5883a 	add	r2,r2,r3
 40419cc:	10c00017 	ldw	r3,0(r2)
 40419d0:	e0bffb17 	ldw	r2,-20(fp)
 40419d4:	10800044 	addi	r2,r2,1
 40419d8:	1085883a 	add	r2,r2,r2
 40419dc:	1085883a 	add	r2,r2,r2
 40419e0:	1009883a 	mov	r4,r2
 40419e4:	e0bffd17 	ldw	r2,-12(fp)
 40419e8:	1105883a 	add	r2,r2,r4
 40419ec:	10800017 	ldw	r2,0(r2)
 40419f0:	1887883a 	add	r3,r3,r2
 40419f4:	e0bffb17 	ldw	r2,-20(fp)
 40419f8:	10800084 	addi	r2,r2,2
 40419fc:	1085883a 	add	r2,r2,r2
 4041a00:	1085883a 	add	r2,r2,r2
 4041a04:	1009883a 	mov	r4,r2
 4041a08:	e0bffd17 	ldw	r2,-12(fp)
 4041a0c:	1105883a 	add	r2,r2,r4
 4041a10:	10800017 	ldw	r2,0(r2)
 4041a14:	1885883a 	add	r2,r3,r2
 4041a18:	e0fff917 	ldw	r3,-28(fp)
 4041a1c:	1885883a 	add	r2,r3,r2
 4041a20:	e0bff915 	stw	r2,-28(fp)
			res += *(imageArray+offset[2]) + *(imageArray+offset[2]+1) + *(imageArray+offset[2]+2);
 4041a24:	e0bffc17 	ldw	r2,-16(fp)
 4041a28:	1085883a 	add	r2,r2,r2
 4041a2c:	1085883a 	add	r2,r2,r2
 4041a30:	1007883a 	mov	r3,r2
 4041a34:	e0bffd17 	ldw	r2,-12(fp)
 4041a38:	10c5883a 	add	r2,r2,r3
 4041a3c:	10c00017 	ldw	r3,0(r2)
 4041a40:	e0bffc17 	ldw	r2,-16(fp)
 4041a44:	10800044 	addi	r2,r2,1
 4041a48:	1085883a 	add	r2,r2,r2
 4041a4c:	1085883a 	add	r2,r2,r2
 4041a50:	1009883a 	mov	r4,r2
 4041a54:	e0bffd17 	ldw	r2,-12(fp)
 4041a58:	1105883a 	add	r2,r2,r4
 4041a5c:	10800017 	ldw	r2,0(r2)
 4041a60:	1887883a 	add	r3,r3,r2
 4041a64:	e0bffc17 	ldw	r2,-16(fp)
 4041a68:	10800084 	addi	r2,r2,2
 4041a6c:	1085883a 	add	r2,r2,r2
 4041a70:	1085883a 	add	r2,r2,r2
 4041a74:	1009883a 	mov	r4,r2
 4041a78:	e0bffd17 	ldw	r2,-12(fp)
 4041a7c:	1105883a 	add	r2,r2,r4
 4041a80:	10800017 	ldw	r2,0(r2)
 4041a84:	1885883a 	add	r2,r3,r2
 4041a88:	e0fff917 	ldw	r3,-28(fp)
 4041a8c:	1885883a 	add	r2,r3,r2
 4041a90:	e0bff915 	stw	r2,-28(fp)
			IOWR_8DIRECT(DIV9_TOHW_BASE,0,res);
 4041a94:	00810234 	movhi	r2,1032
 4041a98:	10840c04 	addi	r2,r2,4144
 4041a9c:	e0fff903 	ldbu	r3,-28(fp)
 4041aa0:	10c00025 	stbio	r3,0(r2)
			*(output+2+writeIndex) = IORD_8DIRECT(DIV9_TOSW_BASE,0); // Calculate convolution
 4041aa4:	e0bff517 	ldw	r2,-44(fp)
 4041aa8:	10800084 	addi	r2,r2,2
 4041aac:	1085883a 	add	r2,r2,r2
 4041ab0:	1085883a 	add	r2,r2,r2
 4041ab4:	1007883a 	mov	r3,r2
 4041ab8:	e0bff817 	ldw	r2,-32(fp)
 4041abc:	10c7883a 	add	r3,r2,r3
 4041ac0:	00810234 	movhi	r2,1032
 4041ac4:	10840804 	addi	r2,r2,4128
 4041ac8:	10800023 	ldbuio	r2,0(r2)
 4041acc:	10803fcc 	andi	r2,r2,255
 4041ad0:	18800015 	stw	r2,0(r3)
			writeIndex++;
 4041ad4:	e0bff517 	ldw	r2,-44(fp)
 4041ad8:	10800044 	addi	r2,r2,1
 4041adc:	e0bff515 	stw	r2,-44(fp)
	int offset[3];
	int res;

	int writeIndex = 0;
	for (int row = -1; row < rows-1; row++){
		for (int col = -1; col < cols-1; col++){
 4041ae0:	e0bff717 	ldw	r2,-36(fp)
 4041ae4:	10800044 	addi	r2,r2,1
 4041ae8:	e0bff715 	stw	r2,-36(fp)
 4041aec:	e0bffe17 	ldw	r2,-8(fp)
 4041af0:	10bfffc4 	addi	r2,r2,-1
 4041af4:	e0fff717 	ldw	r3,-36(fp)
 4041af8:	18bf6616 	blt	r3,r2,4041894 <__flash_rwdata_start+0xfffe7164>
	// Iterate through each row/column and get the relevant pixel, perform the conv
	int offset[3];
	int res;

	int writeIndex = 0;
	for (int row = -1; row < rows-1; row++){
 4041afc:	e0bff617 	ldw	r2,-40(fp)
 4041b00:	10800044 	addi	r2,r2,1
 4041b04:	e0bff615 	stw	r2,-40(fp)
 4041b08:	e0bfff17 	ldw	r2,-4(fp)
 4041b0c:	10bfffc4 	addi	r2,r2,-1
 4041b10:	e0fff617 	ldw	r3,-40(fp)
 4041b14:	18bf5c16 	blt	r3,r2,4041888 <__flash_rwdata_start+0xfffe7158>
			*(output+2+writeIndex) = IORD_8DIRECT(DIV9_TOSW_BASE,0); // Calculate convolution
			writeIndex++;
		}
	}
	// Return the memory location with the blurred image
	return output;
 4041b18:	e0bff817 	ldw	r2,-32(fp)
}
 4041b1c:	e037883a 	mov	sp,fp
 4041b20:	dfc00117 	ldw	ra,4(sp)
 4041b24:	df000017 	ldw	fp,0(sp)
 4041b28:	dec00204 	addi	sp,sp,8
 4041b2c:	f800283a 	ret

04041b30 <reverseImg>:

int* reverseImg(int* imageArray, int numPixels) {
 4041b30:	defff904 	addi	sp,sp,-28
 4041b34:	dfc00615 	stw	ra,24(sp)
 4041b38:	df000515 	stw	fp,20(sp)
 4041b3c:	df000504 	addi	fp,sp,20
 4041b40:	e13ffe15 	stw	r4,-8(fp)
 4041b44:	e17fff15 	stw	r5,-4(fp)
	// Allocate memory for reversed image
	int* output = (int*)malloc(numPixels*sizeof(int));
 4041b48:	e0bfff17 	ldw	r2,-4(fp)
 4041b4c:	1085883a 	add	r2,r2,r2
 4041b50:	1085883a 	add	r2,r2,r2
 4041b54:	1009883a 	mov	r4,r2
 4041b58:	404306c0 	call	404306c <malloc>
 4041b5c:	e0bffd15 	stw	r2,-12(fp)
	int reversePixelIdx = numPixels;
 4041b60:	e0bfff17 	ldw	r2,-4(fp)
 4041b64:	e0bffb15 	stw	r2,-20(fp)

	// Store Reversed Image
	for (int pixel = 0; pixel<numPixels; pixel++) {
 4041b68:	e03ffc15 	stw	zero,-16(fp)
 4041b6c:	00001406 	br	4041bc0 <reverseImg+0x90>
		reversePixelIdx--;
 4041b70:	e0bffb17 	ldw	r2,-20(fp)
 4041b74:	10bfffc4 	addi	r2,r2,-1
 4041b78:	e0bffb15 	stw	r2,-20(fp)
		*(output+pixel)=*(imageArray+reversePixelIdx);
 4041b7c:	e0bffc17 	ldw	r2,-16(fp)
 4041b80:	1085883a 	add	r2,r2,r2
 4041b84:	1085883a 	add	r2,r2,r2
 4041b88:	1007883a 	mov	r3,r2
 4041b8c:	e0bffd17 	ldw	r2,-12(fp)
 4041b90:	10c7883a 	add	r3,r2,r3
 4041b94:	e0bffb17 	ldw	r2,-20(fp)
 4041b98:	1085883a 	add	r2,r2,r2
 4041b9c:	1085883a 	add	r2,r2,r2
 4041ba0:	1009883a 	mov	r4,r2
 4041ba4:	e0bffe17 	ldw	r2,-8(fp)
 4041ba8:	1105883a 	add	r2,r2,r4
 4041bac:	10800017 	ldw	r2,0(r2)
 4041bb0:	18800015 	stw	r2,0(r3)
	// Allocate memory for reversed image
	int* output = (int*)malloc(numPixels*sizeof(int));
	int reversePixelIdx = numPixels;

	// Store Reversed Image
	for (int pixel = 0; pixel<numPixels; pixel++) {
 4041bb4:	e0bffc17 	ldw	r2,-16(fp)
 4041bb8:	10800044 	addi	r2,r2,1
 4041bbc:	e0bffc15 	stw	r2,-16(fp)
 4041bc0:	e0fffc17 	ldw	r3,-16(fp)
 4041bc4:	e0bfff17 	ldw	r2,-4(fp)
 4041bc8:	18bfe916 	blt	r3,r2,4041b70 <__flash_rwdata_start+0xfffe7440>
		reversePixelIdx--;
		*(output+pixel)=*(imageArray+reversePixelIdx);
	}

	// Return the memory location with the reversed image
	return output;
 4041bcc:	e0bffd17 	ldw	r2,-12(fp)
}
 4041bd0:	e037883a 	mov	sp,fp
 4041bd4:	dfc00117 	ldw	ra,4(sp)
 4041bd8:	df000017 	ldw	fp,0(sp)
 4041bdc:	dec00204 	addi	sp,sp,8
 4041be0:	f800283a 	ret

04041be4 <imgToPtr>:

int* imgToPtr(int baseAddr, int pixelNum) {
 4041be4:	defffa04 	addi	sp,sp,-24
 4041be8:	dfc00515 	stw	ra,20(sp)
 4041bec:	df000415 	stw	fp,16(sp)
 4041bf0:	df000404 	addi	fp,sp,16
 4041bf4:	e13ffe15 	stw	r4,-8(fp)
 4041bf8:	e17fff15 	stw	r5,-4(fp)
	// Allocate pointer to hold image
	int* img = (int*) malloc(pixelNum*sizeof(int));
 4041bfc:	e0bfff17 	ldw	r2,-4(fp)
 4041c00:	1085883a 	add	r2,r2,r2
 4041c04:	1085883a 	add	r2,r2,r2
 4041c08:	1009883a 	mov	r4,r2
 4041c0c:	404306c0 	call	404306c <malloc>
 4041c10:	e0bffd15 	stw	r2,-12(fp)
	// Extract image to allocated pointer
	for (int pixel = 0; pixel<pixelNum; pixel++) {
 4041c14:	e03ffc15 	stw	zero,-16(fp)
 4041c18:	00001206 	br	4041c64 <imgToPtr+0x80>
		*(img+pixel) = IORD_32DIRECT(baseAddr,pixel*4)>>24;
 4041c1c:	e0bffc17 	ldw	r2,-16(fp)
 4041c20:	1085883a 	add	r2,r2,r2
 4041c24:	1085883a 	add	r2,r2,r2
 4041c28:	1007883a 	mov	r3,r2
 4041c2c:	e0bffd17 	ldw	r2,-12(fp)
 4041c30:	10c7883a 	add	r3,r2,r3
 4041c34:	e0bffc17 	ldw	r2,-16(fp)
 4041c38:	1085883a 	add	r2,r2,r2
 4041c3c:	1085883a 	add	r2,r2,r2
 4041c40:	1009883a 	mov	r4,r2
 4041c44:	e0bffe17 	ldw	r2,-8(fp)
 4041c48:	2085883a 	add	r2,r4,r2
 4041c4c:	10800037 	ldwio	r2,0(r2)
 4041c50:	1005d63a 	srai	r2,r2,24
 4041c54:	18800015 	stw	r2,0(r3)

int* imgToPtr(int baseAddr, int pixelNum) {
	// Allocate pointer to hold image
	int* img = (int*) malloc(pixelNum*sizeof(int));
	// Extract image to allocated pointer
	for (int pixel = 0; pixel<pixelNum; pixel++) {
 4041c58:	e0bffc17 	ldw	r2,-16(fp)
 4041c5c:	10800044 	addi	r2,r2,1
 4041c60:	e0bffc15 	stw	r2,-16(fp)
 4041c64:	e0fffc17 	ldw	r3,-16(fp)
 4041c68:	e0bfff17 	ldw	r2,-4(fp)
 4041c6c:	18bfeb16 	blt	r3,r2,4041c1c <__flash_rwdata_start+0xfffe74ec>
		*(img+pixel) = IORD_32DIRECT(baseAddr,pixel*4)>>24;
	}
	// Return image pointer
	return img;
 4041c70:	e0bffd17 	ldw	r2,-12(fp)
}
 4041c74:	e037883a 	mov	sp,fp
 4041c78:	dfc00117 	ldw	ra,4(sp)
 4041c7c:	df000017 	ldw	fp,0(sp)
 4041c80:	dec00204 	addi	sp,sp,8
 4041c84:	f800283a 	ret

04041c88 <imgToSDRAM>:

void imgToSDRAM(int* imgPtr, int baseAddr, int pixelNum, int padding) {
 4041c88:	defffa04 	addi	sp,sp,-24
 4041c8c:	df000515 	stw	fp,20(sp)
 4041c90:	df000504 	addi	fp,sp,20
 4041c94:	e13ffc15 	stw	r4,-16(fp)
 4041c98:	e17ffd15 	stw	r5,-12(fp)
 4041c9c:	e1bffe15 	stw	r6,-8(fp)
 4041ca0:	e1ffff15 	stw	r7,-4(fp)
	// Save image to SDRAM pointer
	for (int pixel = 0; pixel<pixelNum; pixel++) {
 4041ca4:	e03ffb15 	stw	zero,-20(fp)
 4041ca8:	00001506 	br	4041d00 <imgToSDRAM+0x78>
		IOWR_32DIRECT(baseAddr,pixel*4,*(imgPtr+pixel+padding)<<24);
 4041cac:	e0bffb17 	ldw	r2,-20(fp)
 4041cb0:	1085883a 	add	r2,r2,r2
 4041cb4:	1085883a 	add	r2,r2,r2
 4041cb8:	1007883a 	mov	r3,r2
 4041cbc:	e0bffd17 	ldw	r2,-12(fp)
 4041cc0:	1885883a 	add	r2,r3,r2
 4041cc4:	1009883a 	mov	r4,r2
 4041cc8:	e0fffb17 	ldw	r3,-20(fp)
 4041ccc:	e0bfff17 	ldw	r2,-4(fp)
 4041cd0:	1885883a 	add	r2,r3,r2
 4041cd4:	1085883a 	add	r2,r2,r2
 4041cd8:	1085883a 	add	r2,r2,r2
 4041cdc:	1007883a 	mov	r3,r2
 4041ce0:	e0bffc17 	ldw	r2,-16(fp)
 4041ce4:	10c5883a 	add	r2,r2,r3
 4041ce8:	10800017 	ldw	r2,0(r2)
 4041cec:	1004963a 	slli	r2,r2,24
 4041cf0:	20800035 	stwio	r2,0(r4)
	return img;
}

void imgToSDRAM(int* imgPtr, int baseAddr, int pixelNum, int padding) {
	// Save image to SDRAM pointer
	for (int pixel = 0; pixel<pixelNum; pixel++) {
 4041cf4:	e0bffb17 	ldw	r2,-20(fp)
 4041cf8:	10800044 	addi	r2,r2,1
 4041cfc:	e0bffb15 	stw	r2,-20(fp)
 4041d00:	e0fffb17 	ldw	r3,-20(fp)
 4041d04:	e0bffe17 	ldw	r2,-8(fp)
 4041d08:	18bfe816 	blt	r3,r2,4041cac <__flash_rwdata_start+0xfffe757c>
		IOWR_32DIRECT(baseAddr,pixel*4,*(imgPtr+pixel+padding)<<24);
	}
}
 4041d0c:	0001883a 	nop
 4041d10:	e037883a 	mov	sp,fp
 4041d14:	df000017 	ldw	fp,0(sp)
 4041d18:	dec00104 	addi	sp,sp,4
 4041d1c:	f800283a 	ret

04041d20 <imageOneTask>:
 * ------------------------- */

/* ------------------------- *
 *    BEGIN SYSTEM TASKS 	 *
 * ------------------------- */
void imageOneTask(void* pdata) {
 4041d20:	defff904 	addi	sp,sp,-28
 4041d24:	dfc00615 	stw	ra,24(sp)
 4041d28:	df000515 	stw	fp,20(sp)
 4041d2c:	df000504 	addi	fp,sp,20
 4041d30:	e13fff15 	stw	r4,-4(fp)
	int switchVal;
	int* img;
	int* imgDS;
	INT8U err;
	while (1) {
		OSSemPend(semDisplay1,0,&err);
 4041d34:	d0a03b17 	ldw	r2,-32532(gp)
 4041d38:	e0fffe04 	addi	r3,fp,-8
 4041d3c:	180d883a 	mov	r6,r3
 4041d40:	000b883a 	mov	r5,zero
 4041d44:	1009883a 	mov	r4,r2
 4041d48:	4055bc40 	call	4055bc4 <OSSemPend>
		#if ENABLE_DEBUG_OUTPUT
		printf("I1T GO\n");
		#endif
		switchVal = IORD(SW_IN_BASE, 0);
 4041d4c:	00810234 	movhi	r2,1032
 4041d50:	10842804 	addi	r2,r2,4256
 4041d54:	10800037 	ldwio	r2,0(r2)
 4041d58:	e0bffd15 	stw	r2,-12(fp)
		switchVal = switchVal & 0b11;
 4041d5c:	e0bffd17 	ldw	r2,-12(fp)
 4041d60:	108000cc 	andi	r2,r2,3
 4041d64:	e0bffd15 	stw	r2,-12(fp)
		switch (switchVal) {
 4041d68:	e0bffd17 	ldw	r2,-12(fp)
 4041d6c:	10c00060 	cmpeqi	r3,r2,1
 4041d70:	1800181e 	bne	r3,zero,4041dd4 <imageOneTask+0xb4>
 4041d74:	10c00088 	cmpgei	r3,r2,2
 4041d78:	1800021e 	bne	r3,zero,4041d84 <imageOneTask+0x64>
 4041d7c:	10000626 	beq	r2,zero,4041d98 <imageOneTask+0x78>
 4041d80:	00005f06 	br	4041f00 <imageOneTask+0x1e0>
 4041d84:	10c000a0 	cmpeqi	r3,r2,2
 4041d88:	18002b1e 	bne	r3,zero,4041e38 <imageOneTask+0x118>
 4041d8c:	108000e0 	cmpeqi	r2,r2,3
 4041d90:	1000421e 	bne	r2,zero,4041e9c <imageOneTask+0x17c>
 4041d94:	00005a06 	br	4041f00 <imageOneTask+0x1e0>
		//Base image
		case 0b00:
			//downscale
			img = imgToPtr(SDRAM_BASEADDR, BUF_MAX_PIX);
 4041d98:	0152c004 	movi	r5,19200
 4041d9c:	0009883a 	mov	r4,zero
 4041da0:	4041be40 	call	4041be4 <imgToPtr>
 4041da4:	e0bffb15 	stw	r2,-20(fp)
			imgDS = downscaleImg2x(img, IMG_WIDTH, IMG_HEIGHT, 0);
 4041da8:	000f883a 	mov	r7,zero
 4041dac:	01801e04 	movi	r6,120
 4041db0:	01402804 	movi	r5,160
 4041db4:	e13ffb17 	ldw	r4,-20(fp)
 4041db8:	4040aa80 	call	4040aa8 <downscaleImg2x>
 4041dbc:	e0bffc15 	stw	r2,-16(fp)
			imageToBuffer(imgDS,0,0);
 4041dc0:	000d883a 	mov	r6,zero
 4041dc4:	000b883a 	mov	r5,zero
 4041dc8:	e13ffc17 	ldw	r4,-16(fp)
 4041dcc:	40407140 	call	4040714 <imageToBuffer>
			break;
 4041dd0:	00004b06 	br	4041f00 <imageOneTask+0x1e0>
		//Flip
		case 0b01:
			// Hold Access to image while we retrieve data. Otherwise we will get tearing (if this was video data)
			OSSemPend(semLockFlipImgPointer,0,&err);
 4041dd4:	d0a04017 	ldw	r2,-32512(gp)
 4041dd8:	e0fffe04 	addi	r3,fp,-8
 4041ddc:	180d883a 	mov	r6,r3
 4041de0:	000b883a 	mov	r5,zero
 4041de4:	1009883a 	mov	r4,r2
 4041de8:	4055bc40 	call	4055bc4 <OSSemPend>
			img = imgToPtr(FLIPIMG_BASE, BUF_MAX_PIX);
 4041dec:	0152c004 	movi	r5,19200
 4041df0:	01000074 	movhi	r4,1
 4041df4:	210b0004 	addi	r4,r4,11264
 4041df8:	4041be40 	call	4041be4 <imgToPtr>
 4041dfc:	e0bffb15 	stw	r2,-20(fp)
			OSSemPost(semLockFlipImgPointer);
 4041e00:	d0a04017 	ldw	r2,-32512(gp)
 4041e04:	1009883a 	mov	r4,r2
 4041e08:	4055f3c0 	call	4055f3c <OSSemPost>
			imgDS = downscaleImg2x(img, IMG_WIDTH, IMG_HEIGHT, 0);
 4041e0c:	000f883a 	mov	r7,zero
 4041e10:	01801e04 	movi	r6,120
 4041e14:	01402804 	movi	r5,160
 4041e18:	e13ffb17 	ldw	r4,-20(fp)
 4041e1c:	4040aa80 	call	4040aa8 <downscaleImg2x>
 4041e20:	e0bffc15 	stw	r2,-16(fp)
			imageToBuffer(imgDS,0,0);
 4041e24:	000d883a 	mov	r6,zero
 4041e28:	000b883a 	mov	r5,zero
 4041e2c:	e13ffc17 	ldw	r4,-16(fp)
 4041e30:	40407140 	call	4040714 <imageToBuffer>
			break;
 4041e34:	00003206 	br	4041f00 <imageOneTask+0x1e0>
		//Blur
		case 0b10:
			// Hold Access to image while we retrieve data. Otherwise we will get tearing (if this was video data)
			OSSemPend(semLockBlurImgPointer,0,&err);
 4041e38:	d0a03d17 	ldw	r2,-32524(gp)
 4041e3c:	e0fffe04 	addi	r3,fp,-8
 4041e40:	180d883a 	mov	r6,r3
 4041e44:	000b883a 	mov	r5,zero
 4041e48:	1009883a 	mov	r4,r2
 4041e4c:	4055bc40 	call	4055bc4 <OSSemPend>
			img = imgToPtr(BLURING_BASE, BUF_MAX_PIX);
 4041e50:	0152c004 	movi	r5,19200
 4041e54:	01000134 	movhi	r4,4
 4041e58:	21210004 	addi	r4,r4,-31744
 4041e5c:	4041be40 	call	4041be4 <imgToPtr>
 4041e60:	e0bffb15 	stw	r2,-20(fp)
			OSSemPost(semLockBlurImgPointer);
 4041e64:	d0a03d17 	ldw	r2,-32524(gp)
 4041e68:	1009883a 	mov	r4,r2
 4041e6c:	4055f3c0 	call	4055f3c <OSSemPost>
			imgDS = downscaleImg2x(img, IMG_WIDTH, IMG_HEIGHT, 2);
 4041e70:	01c00084 	movi	r7,2
 4041e74:	01801e04 	movi	r6,120
 4041e78:	01402804 	movi	r5,160
 4041e7c:	e13ffb17 	ldw	r4,-20(fp)
 4041e80:	4040aa80 	call	4040aa8 <downscaleImg2x>
 4041e84:	e0bffc15 	stw	r2,-16(fp)
			imageToBuffer(imgDS,0,0);
 4041e88:	000d883a 	mov	r6,zero
 4041e8c:	000b883a 	mov	r5,zero
 4041e90:	e13ffc17 	ldw	r4,-16(fp)
 4041e94:	40407140 	call	4040714 <imageToBuffer>
			break;
 4041e98:	00001906 	br	4041f00 <imageOneTask+0x1e0>
		//Edge
		case 0b11:
			// Hold Access to image while we retrieve data. Otherwise we will get tearing (if this was video data)
			OSSemPend(semLockEdgeImgPointer,0,&err);
 4041e9c:	d0a03517 	ldw	r2,-32556(gp)
 4041ea0:	e0fffe04 	addi	r3,fp,-8
 4041ea4:	180d883a 	mov	r6,r3
 4041ea8:	000b883a 	mov	r5,zero
 4041eac:	1009883a 	mov	r4,r2
 4041eb0:	4055bc40 	call	4055bc4 <OSSemPend>
			img = imgToPtr(EDGEIMG_BASE, BUF_MAX_PIX);
 4041eb4:	0152c004 	movi	r5,19200
 4041eb8:	010000b4 	movhi	r4,2
 4041ebc:	21160004 	addi	r4,r4,22528
 4041ec0:	4041be40 	call	4041be4 <imgToPtr>
 4041ec4:	e0bffb15 	stw	r2,-20(fp)
			OSSemPost(semLockEdgeImgPointer);
 4041ec8:	d0a03517 	ldw	r2,-32556(gp)
 4041ecc:	1009883a 	mov	r4,r2
 4041ed0:	4055f3c0 	call	4055f3c <OSSemPost>
			imgDS = downscaleImg2x(img, IMG_WIDTH, IMG_HEIGHT, 2);
 4041ed4:	01c00084 	movi	r7,2
 4041ed8:	01801e04 	movi	r6,120
 4041edc:	01402804 	movi	r5,160
 4041ee0:	e13ffb17 	ldw	r4,-20(fp)
 4041ee4:	4040aa80 	call	4040aa8 <downscaleImg2x>
 4041ee8:	e0bffc15 	stw	r2,-16(fp)
			imageToBuffer(imgDS,0,0);
 4041eec:	000d883a 	mov	r6,zero
 4041ef0:	000b883a 	mov	r5,zero
 4041ef4:	e13ffc17 	ldw	r4,-16(fp)
 4041ef8:	40407140 	call	4040714 <imageToBuffer>
			break;
 4041efc:	0001883a 	nop
		}
		free(img);
 4041f00:	e13ffb17 	ldw	r4,-20(fp)
 4041f04:	40430800 	call	4043080 <free>
		free(imgDS);
 4041f08:	e13ffc17 	ldw	r4,-16(fp)
 4041f0c:	40430800 	call	4043080 <free>
		OSSemPost(semDisplay2);
 4041f10:	d0a03e17 	ldw	r2,-32520(gp)
 4041f14:	1009883a 	mov	r4,r2
 4041f18:	4055f3c0 	call	4055f3c <OSSemPost>
		OSTimeDlyHMSM(0, 0, 0, 250);
 4041f1c:	01c03e84 	movi	r7,250
 4041f20:	000d883a 	mov	r6,zero
 4041f24:	000b883a 	mov	r5,zero
 4041f28:	0009883a 	mov	r4,zero
 4041f2c:	4057acc0 	call	4057acc <OSTimeDlyHMSM>
	}
 4041f30:	003f8006 	br	4041d34 <__flash_rwdata_start+0xfffe7604>

04041f34 <imageTwoTask>:
}

void imageTwoTask(void* pdata) {
 4041f34:	defff904 	addi	sp,sp,-28
 4041f38:	dfc00615 	stw	ra,24(sp)
 4041f3c:	df000515 	stw	fp,20(sp)
 4041f40:	df000504 	addi	fp,sp,20
 4041f44:	e13fff15 	stw	r4,-4(fp)
	int switchVal;
	int* img;
	int* imgDS;
	INT8U err;
	while (1) {
		OSSemPend(semDisplay2,0,&err);
 4041f48:	d0a03e17 	ldw	r2,-32520(gp)
 4041f4c:	e0fffe04 	addi	r3,fp,-8
 4041f50:	180d883a 	mov	r6,r3
 4041f54:	000b883a 	mov	r5,zero
 4041f58:	1009883a 	mov	r4,r2
 4041f5c:	4055bc40 	call	4055bc4 <OSSemPend>
		#if ENABLE_DEBUG_OUTPUT
		printf("I2T GO\n");
		#endif
		switchVal = IORD(SW_IN_BASE, 0);
 4041f60:	00810234 	movhi	r2,1032
 4041f64:	10842804 	addi	r2,r2,4256
 4041f68:	10800037 	ldwio	r2,0(r2)
 4041f6c:	e0bffd15 	stw	r2,-12(fp)
		switchVal = (switchVal & 0b1100) >> 2;
 4041f70:	e0bffd17 	ldw	r2,-12(fp)
 4041f74:	1080030c 	andi	r2,r2,12
 4041f78:	1005d0ba 	srai	r2,r2,2
 4041f7c:	e0bffd15 	stw	r2,-12(fp)
		switch (switchVal) {
 4041f80:	e0bffd17 	ldw	r2,-12(fp)
 4041f84:	10c00060 	cmpeqi	r3,r2,1
 4041f88:	1800181e 	bne	r3,zero,4041fec <imageTwoTask+0xb8>
 4041f8c:	10c00088 	cmpgei	r3,r2,2
 4041f90:	1800021e 	bne	r3,zero,4041f9c <imageTwoTask+0x68>
 4041f94:	10000626 	beq	r2,zero,4041fb0 <imageTwoTask+0x7c>
 4041f98:	00005f06 	br	4042118 <imageTwoTask+0x1e4>
 4041f9c:	10c000a0 	cmpeqi	r3,r2,2
 4041fa0:	18002b1e 	bne	r3,zero,4042050 <imageTwoTask+0x11c>
 4041fa4:	108000e0 	cmpeqi	r2,r2,3
 4041fa8:	1000421e 	bne	r2,zero,40420b4 <imageTwoTask+0x180>
 4041fac:	00005a06 	br	4042118 <imageTwoTask+0x1e4>
		//Base image
		case 0b00:
			//downscale
			img = imgToPtr(SDRAM_BASEADDR, BUF_MAX_PIX);
 4041fb0:	0152c004 	movi	r5,19200
 4041fb4:	0009883a 	mov	r4,zero
 4041fb8:	4041be40 	call	4041be4 <imgToPtr>
 4041fbc:	e0bffb15 	stw	r2,-20(fp)
			imgDS = downscaleImg2x(img, IMG_WIDTH, IMG_HEIGHT, 0);
 4041fc0:	000f883a 	mov	r7,zero
 4041fc4:	01801e04 	movi	r6,120
 4041fc8:	01402804 	movi	r5,160
 4041fcc:	e13ffb17 	ldw	r4,-20(fp)
 4041fd0:	4040aa80 	call	4040aa8 <downscaleImg2x>
 4041fd4:	e0bffc15 	stw	r2,-16(fp)
			imageToBuffer(imgDS,IMG_WIDTH/2,0);
 4041fd8:	000d883a 	mov	r6,zero
 4041fdc:	01401404 	movi	r5,80
 4041fe0:	e13ffc17 	ldw	r4,-16(fp)
 4041fe4:	40407140 	call	4040714 <imageToBuffer>
			break;
 4041fe8:	00004b06 	br	4042118 <imageTwoTask+0x1e4>
			//Flip
		case 0b01:
			// Hold Access to image while we retrieve data. Otherwise we will get tearing (if this was video data)
			OSSemPend(semLockFlipImgPointer,0,&err);
 4041fec:	d0a04017 	ldw	r2,-32512(gp)
 4041ff0:	e0fffe04 	addi	r3,fp,-8
 4041ff4:	180d883a 	mov	r6,r3
 4041ff8:	000b883a 	mov	r5,zero
 4041ffc:	1009883a 	mov	r4,r2
 4042000:	4055bc40 	call	4055bc4 <OSSemPend>
			img = imgToPtr(FLIPIMG_BASE, BUF_MAX_PIX);
 4042004:	0152c004 	movi	r5,19200
 4042008:	01000074 	movhi	r4,1
 404200c:	210b0004 	addi	r4,r4,11264
 4042010:	4041be40 	call	4041be4 <imgToPtr>
 4042014:	e0bffb15 	stw	r2,-20(fp)
			OSSemPost(semLockFlipImgPointer);
 4042018:	d0a04017 	ldw	r2,-32512(gp)
 404201c:	1009883a 	mov	r4,r2
 4042020:	4055f3c0 	call	4055f3c <OSSemPost>
			imgDS = downscaleImg2x(img, IMG_WIDTH, IMG_HEIGHT, 0);
 4042024:	000f883a 	mov	r7,zero
 4042028:	01801e04 	movi	r6,120
 404202c:	01402804 	movi	r5,160
 4042030:	e13ffb17 	ldw	r4,-20(fp)
 4042034:	4040aa80 	call	4040aa8 <downscaleImg2x>
 4042038:	e0bffc15 	stw	r2,-16(fp)
			imageToBuffer(imgDS,IMG_WIDTH/2,0);
 404203c:	000d883a 	mov	r6,zero
 4042040:	01401404 	movi	r5,80
 4042044:	e13ffc17 	ldw	r4,-16(fp)
 4042048:	40407140 	call	4040714 <imageToBuffer>
			break;
 404204c:	00003206 	br	4042118 <imageTwoTask+0x1e4>
			//Blur
		case 0b10:
			// Hold Access to image while we retrieve data. Otherwise we will get tearing (if this was video data)
			OSSemPend(semLockBlurImgPointer,0,&err);
 4042050:	d0a03d17 	ldw	r2,-32524(gp)
 4042054:	e0fffe04 	addi	r3,fp,-8
 4042058:	180d883a 	mov	r6,r3
 404205c:	000b883a 	mov	r5,zero
 4042060:	1009883a 	mov	r4,r2
 4042064:	4055bc40 	call	4055bc4 <OSSemPend>
			img = imgToPtr(BLURING_BASE, BUF_MAX_PIX);
 4042068:	0152c004 	movi	r5,19200
 404206c:	01000134 	movhi	r4,4
 4042070:	21210004 	addi	r4,r4,-31744
 4042074:	4041be40 	call	4041be4 <imgToPtr>
 4042078:	e0bffb15 	stw	r2,-20(fp)
			OSSemPost(semLockBlurImgPointer);
 404207c:	d0a03d17 	ldw	r2,-32524(gp)
 4042080:	1009883a 	mov	r4,r2
 4042084:	4055f3c0 	call	4055f3c <OSSemPost>
			imgDS = downscaleImg2x(img, IMG_WIDTH, IMG_HEIGHT, 2);
 4042088:	01c00084 	movi	r7,2
 404208c:	01801e04 	movi	r6,120
 4042090:	01402804 	movi	r5,160
 4042094:	e13ffb17 	ldw	r4,-20(fp)
 4042098:	4040aa80 	call	4040aa8 <downscaleImg2x>
 404209c:	e0bffc15 	stw	r2,-16(fp)
			imageToBuffer(imgDS,IMG_WIDTH/2,0);
 40420a0:	000d883a 	mov	r6,zero
 40420a4:	01401404 	movi	r5,80
 40420a8:	e13ffc17 	ldw	r4,-16(fp)
 40420ac:	40407140 	call	4040714 <imageToBuffer>
			break;
 40420b0:	00001906 	br	4042118 <imageTwoTask+0x1e4>
			//Edge
		case 0b11:
			// Hold Access to image while we retrieve data. Otherwise we will get tearing (if this was video data)
			OSSemPend(semLockEdgeImgPointer,0,&err);
 40420b4:	d0a03517 	ldw	r2,-32556(gp)
 40420b8:	e0fffe04 	addi	r3,fp,-8
 40420bc:	180d883a 	mov	r6,r3
 40420c0:	000b883a 	mov	r5,zero
 40420c4:	1009883a 	mov	r4,r2
 40420c8:	4055bc40 	call	4055bc4 <OSSemPend>
			img = imgToPtr(EDGEIMG_BASE, BUF_MAX_PIX);
 40420cc:	0152c004 	movi	r5,19200
 40420d0:	010000b4 	movhi	r4,2
 40420d4:	21160004 	addi	r4,r4,22528
 40420d8:	4041be40 	call	4041be4 <imgToPtr>
 40420dc:	e0bffb15 	stw	r2,-20(fp)
			OSSemPost(semLockEdgeImgPointer);
 40420e0:	d0a03517 	ldw	r2,-32556(gp)
 40420e4:	1009883a 	mov	r4,r2
 40420e8:	4055f3c0 	call	4055f3c <OSSemPost>
			imgDS = downscaleImg2x(img, IMG_WIDTH, IMG_HEIGHT, 2);
 40420ec:	01c00084 	movi	r7,2
 40420f0:	01801e04 	movi	r6,120
 40420f4:	01402804 	movi	r5,160
 40420f8:	e13ffb17 	ldw	r4,-20(fp)
 40420fc:	4040aa80 	call	4040aa8 <downscaleImg2x>
 4042100:	e0bffc15 	stw	r2,-16(fp)
			imageToBuffer(imgDS,IMG_WIDTH/2,0);
 4042104:	000d883a 	mov	r6,zero
 4042108:	01401404 	movi	r5,80
 404210c:	e13ffc17 	ldw	r4,-16(fp)
 4042110:	40407140 	call	4040714 <imageToBuffer>
			break;
 4042114:	0001883a 	nop
		}
		free(img);
 4042118:	e13ffb17 	ldw	r4,-20(fp)
 404211c:	40430800 	call	4043080 <free>
		free(imgDS);
 4042120:	e13ffc17 	ldw	r4,-16(fp)
 4042124:	40430800 	call	4043080 <free>
		OSSemPost(semDisplay3);
 4042128:	d0a03717 	ldw	r2,-32548(gp)
 404212c:	1009883a 	mov	r4,r2
 4042130:	4055f3c0 	call	4055f3c <OSSemPost>
		OSTimeDlyHMSM(0, 0, 0, 250);
 4042134:	01c03e84 	movi	r7,250
 4042138:	000d883a 	mov	r6,zero
 404213c:	000b883a 	mov	r5,zero
 4042140:	0009883a 	mov	r4,zero
 4042144:	4057acc0 	call	4057acc <OSTimeDlyHMSM>
	}
 4042148:	003f7f06 	br	4041f48 <__flash_rwdata_start+0xfffe7818>

0404214c <imageThreeTask>:
}

void imageThreeTask(void* pdata) {
 404214c:	defff904 	addi	sp,sp,-28
 4042150:	dfc00615 	stw	ra,24(sp)
 4042154:	df000515 	stw	fp,20(sp)
 4042158:	df000504 	addi	fp,sp,20
 404215c:	e13fff15 	stw	r4,-4(fp)
	int switchVal;
	int* img;
	int* imgDS;
	INT8U err;
	while (1) {
		OSSemPend(semDisplay3,0,&err);
 4042160:	d0a03717 	ldw	r2,-32548(gp)
 4042164:	e0fffe04 	addi	r3,fp,-8
 4042168:	180d883a 	mov	r6,r3
 404216c:	000b883a 	mov	r5,zero
 4042170:	1009883a 	mov	r4,r2
 4042174:	4055bc40 	call	4055bc4 <OSSemPend>
		#if ENABLE_DEBUG_OUTPUT
		printf("I3T GO\n");
		#endif
		switchVal = IORD(SW_IN_BASE, 0);
 4042178:	00810234 	movhi	r2,1032
 404217c:	10842804 	addi	r2,r2,4256
 4042180:	10800037 	ldwio	r2,0(r2)
 4042184:	e0bffd15 	stw	r2,-12(fp)
		switchVal = (switchVal & 0b110000) >> 4;
 4042188:	e0bffd17 	ldw	r2,-12(fp)
 404218c:	10800c0c 	andi	r2,r2,48
 4042190:	1005d13a 	srai	r2,r2,4
 4042194:	e0bffd15 	stw	r2,-12(fp)
		switch (switchVal) {
 4042198:	e0bffd17 	ldw	r2,-12(fp)
 404219c:	10c00060 	cmpeqi	r3,r2,1
 40421a0:	1800181e 	bne	r3,zero,4042204 <imageThreeTask+0xb8>
 40421a4:	10c00088 	cmpgei	r3,r2,2
 40421a8:	1800021e 	bne	r3,zero,40421b4 <imageThreeTask+0x68>
 40421ac:	10000626 	beq	r2,zero,40421c8 <imageThreeTask+0x7c>
 40421b0:	00005f06 	br	4042330 <imageThreeTask+0x1e4>
 40421b4:	10c000a0 	cmpeqi	r3,r2,2
 40421b8:	18002b1e 	bne	r3,zero,4042268 <imageThreeTask+0x11c>
 40421bc:	108000e0 	cmpeqi	r2,r2,3
 40421c0:	1000421e 	bne	r2,zero,40422cc <imageThreeTask+0x180>
 40421c4:	00005a06 	br	4042330 <imageThreeTask+0x1e4>
		//Base image
		case 0b00:
			//downscale
			img = imgToPtr(SDRAM_BASEADDR, BUF_MAX_PIX);
 40421c8:	0152c004 	movi	r5,19200
 40421cc:	0009883a 	mov	r4,zero
 40421d0:	4041be40 	call	4041be4 <imgToPtr>
 40421d4:	e0bffb15 	stw	r2,-20(fp)
			imgDS = downscaleImg2x(img, IMG_WIDTH, IMG_HEIGHT, 0);
 40421d8:	000f883a 	mov	r7,zero
 40421dc:	01801e04 	movi	r6,120
 40421e0:	01402804 	movi	r5,160
 40421e4:	e13ffb17 	ldw	r4,-20(fp)
 40421e8:	4040aa80 	call	4040aa8 <downscaleImg2x>
 40421ec:	e0bffc15 	stw	r2,-16(fp)
			imageToBuffer(imgDS,0,IMG_HEIGHT/2*IMG_WIDTH);
 40421f0:	01896004 	movi	r6,9600
 40421f4:	000b883a 	mov	r5,zero
 40421f8:	e13ffc17 	ldw	r4,-16(fp)
 40421fc:	40407140 	call	4040714 <imageToBuffer>
			break;
 4042200:	00004b06 	br	4042330 <imageThreeTask+0x1e4>
		//Flip
		case 0b01:
			// Hold Access to image while we retrieve data. Otherwise we will get tearing (if this was video data)
			OSSemPend(semLockFlipImgPointer,0,&err);
 4042204:	d0a04017 	ldw	r2,-32512(gp)
 4042208:	e0fffe04 	addi	r3,fp,-8
 404220c:	180d883a 	mov	r6,r3
 4042210:	000b883a 	mov	r5,zero
 4042214:	1009883a 	mov	r4,r2
 4042218:	4055bc40 	call	4055bc4 <OSSemPend>
			img = imgToPtr(FLIPIMG_BASE, BUF_MAX_PIX);
 404221c:	0152c004 	movi	r5,19200
 4042220:	01000074 	movhi	r4,1
 4042224:	210b0004 	addi	r4,r4,11264
 4042228:	4041be40 	call	4041be4 <imgToPtr>
 404222c:	e0bffb15 	stw	r2,-20(fp)
			OSSemPost(semLockFlipImgPointer);
 4042230:	d0a04017 	ldw	r2,-32512(gp)
 4042234:	1009883a 	mov	r4,r2
 4042238:	4055f3c0 	call	4055f3c <OSSemPost>
			imgDS = downscaleImg2x(img, IMG_WIDTH, IMG_HEIGHT, 0);
 404223c:	000f883a 	mov	r7,zero
 4042240:	01801e04 	movi	r6,120
 4042244:	01402804 	movi	r5,160
 4042248:	e13ffb17 	ldw	r4,-20(fp)
 404224c:	4040aa80 	call	4040aa8 <downscaleImg2x>
 4042250:	e0bffc15 	stw	r2,-16(fp)
			imageToBuffer(imgDS,0,IMG_HEIGHT/2*IMG_WIDTH);
 4042254:	01896004 	movi	r6,9600
 4042258:	000b883a 	mov	r5,zero
 404225c:	e13ffc17 	ldw	r4,-16(fp)
 4042260:	40407140 	call	4040714 <imageToBuffer>
			break;
 4042264:	00003206 	br	4042330 <imageThreeTask+0x1e4>
		//Blur
		case 0b10:
			// Hold Access to image while we retrieve data. Otherwise we will get tearing (if this was video data)
			OSSemPend(semLockBlurImgPointer,0,&err);
 4042268:	d0a03d17 	ldw	r2,-32524(gp)
 404226c:	e0fffe04 	addi	r3,fp,-8
 4042270:	180d883a 	mov	r6,r3
 4042274:	000b883a 	mov	r5,zero
 4042278:	1009883a 	mov	r4,r2
 404227c:	4055bc40 	call	4055bc4 <OSSemPend>
			img = imgToPtr(BLURING_BASE, BUF_MAX_PIX);
 4042280:	0152c004 	movi	r5,19200
 4042284:	01000134 	movhi	r4,4
 4042288:	21210004 	addi	r4,r4,-31744
 404228c:	4041be40 	call	4041be4 <imgToPtr>
 4042290:	e0bffb15 	stw	r2,-20(fp)
			OSSemPost(semLockBlurImgPointer);
 4042294:	d0a03d17 	ldw	r2,-32524(gp)
 4042298:	1009883a 	mov	r4,r2
 404229c:	4055f3c0 	call	4055f3c <OSSemPost>
			imgDS = downscaleImg2x(img, IMG_WIDTH, IMG_HEIGHT, 2);
 40422a0:	01c00084 	movi	r7,2
 40422a4:	01801e04 	movi	r6,120
 40422a8:	01402804 	movi	r5,160
 40422ac:	e13ffb17 	ldw	r4,-20(fp)
 40422b0:	4040aa80 	call	4040aa8 <downscaleImg2x>
 40422b4:	e0bffc15 	stw	r2,-16(fp)
			imageToBuffer(imgDS,0,IMG_HEIGHT/2*IMG_WIDTH);
 40422b8:	01896004 	movi	r6,9600
 40422bc:	000b883a 	mov	r5,zero
 40422c0:	e13ffc17 	ldw	r4,-16(fp)
 40422c4:	40407140 	call	4040714 <imageToBuffer>
			break;
 40422c8:	00001906 	br	4042330 <imageThreeTask+0x1e4>
		//Edge
		case 0b11:
			// Hold Access to image while we retrieve data. Otherwise we will get tearing (if this was video data)
			OSSemPend(semLockEdgeImgPointer,0,&err);
 40422cc:	d0a03517 	ldw	r2,-32556(gp)
 40422d0:	e0fffe04 	addi	r3,fp,-8
 40422d4:	180d883a 	mov	r6,r3
 40422d8:	000b883a 	mov	r5,zero
 40422dc:	1009883a 	mov	r4,r2
 40422e0:	4055bc40 	call	4055bc4 <OSSemPend>
			img = imgToPtr(EDGEIMG_BASE, BUF_MAX_PIX);
 40422e4:	0152c004 	movi	r5,19200
 40422e8:	010000b4 	movhi	r4,2
 40422ec:	21160004 	addi	r4,r4,22528
 40422f0:	4041be40 	call	4041be4 <imgToPtr>
 40422f4:	e0bffb15 	stw	r2,-20(fp)
			OSSemPost(semLockEdgeImgPointer);
 40422f8:	d0a03517 	ldw	r2,-32556(gp)
 40422fc:	1009883a 	mov	r4,r2
 4042300:	4055f3c0 	call	4055f3c <OSSemPost>
			imgDS = downscaleImg2x(img, IMG_WIDTH, IMG_HEIGHT, 2);
 4042304:	01c00084 	movi	r7,2
 4042308:	01801e04 	movi	r6,120
 404230c:	01402804 	movi	r5,160
 4042310:	e13ffb17 	ldw	r4,-20(fp)
 4042314:	4040aa80 	call	4040aa8 <downscaleImg2x>
 4042318:	e0bffc15 	stw	r2,-16(fp)
			imageToBuffer(imgDS,0,IMG_HEIGHT/2*IMG_WIDTH);
 404231c:	01896004 	movi	r6,9600
 4042320:	000b883a 	mov	r5,zero
 4042324:	e13ffc17 	ldw	r4,-16(fp)
 4042328:	40407140 	call	4040714 <imageToBuffer>
			break;
 404232c:	0001883a 	nop
		}
		free(img);
 4042330:	e13ffb17 	ldw	r4,-20(fp)
 4042334:	40430800 	call	4043080 <free>
		free(imgDS);
 4042338:	e13ffc17 	ldw	r4,-16(fp)
 404233c:	40430800 	call	4043080 <free>
		OSSemPost(semDisplay4);
 4042340:	d0a03617 	ldw	r2,-32552(gp)
 4042344:	1009883a 	mov	r4,r2
 4042348:	4055f3c0 	call	4055f3c <OSSemPost>
		OSTimeDlyHMSM(0, 0, 0, 250);
 404234c:	01c03e84 	movi	r7,250
 4042350:	000d883a 	mov	r6,zero
 4042354:	000b883a 	mov	r5,zero
 4042358:	0009883a 	mov	r4,zero
 404235c:	4057acc0 	call	4057acc <OSTimeDlyHMSM>
	}
 4042360:	003f7f06 	br	4042160 <__flash_rwdata_start+0xfffe7a30>

04042364 <imageFourTask>:
}

void imageFourTask(void* pdata) {
 4042364:	defff904 	addi	sp,sp,-28
 4042368:	dfc00615 	stw	ra,24(sp)
 404236c:	df000515 	stw	fp,20(sp)
 4042370:	df000504 	addi	fp,sp,20
 4042374:	e13fff15 	stw	r4,-4(fp)
	int switchVal;
	int* img;
	int* imgDS;
	INT8U err;
	while (1) {
		OSSemPend(semDisplay4,0,&err);
 4042378:	d0a03617 	ldw	r2,-32552(gp)
 404237c:	e0fffe04 	addi	r3,fp,-8
 4042380:	180d883a 	mov	r6,r3
 4042384:	000b883a 	mov	r5,zero
 4042388:	1009883a 	mov	r4,r2
 404238c:	4055bc40 	call	4055bc4 <OSSemPend>
		#if ENABLE_DEBUG_OUTPUT
		printf("I4T GO\n");
		#endif
		switchVal = IORD(SW_IN_BASE, 0);
 4042390:	00810234 	movhi	r2,1032
 4042394:	10842804 	addi	r2,r2,4256
 4042398:	10800037 	ldwio	r2,0(r2)
 404239c:	e0bffd15 	stw	r2,-12(fp)
		switchVal = (switchVal & 0b11000000) >> 6;
 40423a0:	e0bffd17 	ldw	r2,-12(fp)
 40423a4:	1080300c 	andi	r2,r2,192
 40423a8:	1005d1ba 	srai	r2,r2,6
 40423ac:	e0bffd15 	stw	r2,-12(fp)
		switch (switchVal) {
 40423b0:	e0bffd17 	ldw	r2,-12(fp)
 40423b4:	10c00060 	cmpeqi	r3,r2,1
 40423b8:	1800181e 	bne	r3,zero,404241c <imageFourTask+0xb8>
 40423bc:	10c00088 	cmpgei	r3,r2,2
 40423c0:	1800021e 	bne	r3,zero,40423cc <imageFourTask+0x68>
 40423c4:	10000626 	beq	r2,zero,40423e0 <imageFourTask+0x7c>
 40423c8:	00005f06 	br	4042548 <imageFourTask+0x1e4>
 40423cc:	10c000a0 	cmpeqi	r3,r2,2
 40423d0:	18002b1e 	bne	r3,zero,4042480 <imageFourTask+0x11c>
 40423d4:	108000e0 	cmpeqi	r2,r2,3
 40423d8:	1000421e 	bne	r2,zero,40424e4 <imageFourTask+0x180>
 40423dc:	00005a06 	br	4042548 <imageFourTask+0x1e4>
		//Base image
		case 0b00:
			//downscale
			img = imgToPtr(SDRAM_BASEADDR, BUF_MAX_PIX);
 40423e0:	0152c004 	movi	r5,19200
 40423e4:	0009883a 	mov	r4,zero
 40423e8:	4041be40 	call	4041be4 <imgToPtr>
 40423ec:	e0bffb15 	stw	r2,-20(fp)
			imgDS = downscaleImg2x(img, IMG_WIDTH, IMG_HEIGHT, 0);
 40423f0:	000f883a 	mov	r7,zero
 40423f4:	01801e04 	movi	r6,120
 40423f8:	01402804 	movi	r5,160
 40423fc:	e13ffb17 	ldw	r4,-20(fp)
 4042400:	4040aa80 	call	4040aa8 <downscaleImg2x>
 4042404:	e0bffc15 	stw	r2,-16(fp)
			imageToBuffer(imgDS,IMG_WIDTH/2,IMG_HEIGHT/2*IMG_WIDTH);
 4042408:	01896004 	movi	r6,9600
 404240c:	01401404 	movi	r5,80
 4042410:	e13ffc17 	ldw	r4,-16(fp)
 4042414:	40407140 	call	4040714 <imageToBuffer>
			break;
 4042418:	00004b06 	br	4042548 <imageFourTask+0x1e4>
		//Flip
		case 0b01:
			// Hold Access to image while we retrieve data. Otherwise we will get tearing (if this was video data)
			OSSemPend(semLockFlipImgPointer,0,&err);
 404241c:	d0a04017 	ldw	r2,-32512(gp)
 4042420:	e0fffe04 	addi	r3,fp,-8
 4042424:	180d883a 	mov	r6,r3
 4042428:	000b883a 	mov	r5,zero
 404242c:	1009883a 	mov	r4,r2
 4042430:	4055bc40 	call	4055bc4 <OSSemPend>
			img = imgToPtr(FLIPIMG_BASE, BUF_MAX_PIX);
 4042434:	0152c004 	movi	r5,19200
 4042438:	01000074 	movhi	r4,1
 404243c:	210b0004 	addi	r4,r4,11264
 4042440:	4041be40 	call	4041be4 <imgToPtr>
 4042444:	e0bffb15 	stw	r2,-20(fp)
			OSSemPost(semLockFlipImgPointer);
 4042448:	d0a04017 	ldw	r2,-32512(gp)
 404244c:	1009883a 	mov	r4,r2
 4042450:	4055f3c0 	call	4055f3c <OSSemPost>
			imgDS = downscaleImg2x(img, IMG_WIDTH, IMG_HEIGHT, 0);
 4042454:	000f883a 	mov	r7,zero
 4042458:	01801e04 	movi	r6,120
 404245c:	01402804 	movi	r5,160
 4042460:	e13ffb17 	ldw	r4,-20(fp)
 4042464:	4040aa80 	call	4040aa8 <downscaleImg2x>
 4042468:	e0bffc15 	stw	r2,-16(fp)
			imageToBuffer(imgDS,IMG_WIDTH/2,IMG_HEIGHT/2*IMG_WIDTH);
 404246c:	01896004 	movi	r6,9600
 4042470:	01401404 	movi	r5,80
 4042474:	e13ffc17 	ldw	r4,-16(fp)
 4042478:	40407140 	call	4040714 <imageToBuffer>
			break;
 404247c:	00003206 	br	4042548 <imageFourTask+0x1e4>
		//Blur
		case 0b10:
			// Hold Access to image while we retrieve data. Otherwise we will get tearing (if this was video data)
			OSSemPend(semLockBlurImgPointer,0,&err);
 4042480:	d0a03d17 	ldw	r2,-32524(gp)
 4042484:	e0fffe04 	addi	r3,fp,-8
 4042488:	180d883a 	mov	r6,r3
 404248c:	000b883a 	mov	r5,zero
 4042490:	1009883a 	mov	r4,r2
 4042494:	4055bc40 	call	4055bc4 <OSSemPend>
			img = imgToPtr(BLURING_BASE, BUF_MAX_PIX);
 4042498:	0152c004 	movi	r5,19200
 404249c:	01000134 	movhi	r4,4
 40424a0:	21210004 	addi	r4,r4,-31744
 40424a4:	4041be40 	call	4041be4 <imgToPtr>
 40424a8:	e0bffb15 	stw	r2,-20(fp)
			OSSemPost(semLockBlurImgPointer);			imgDS = downscaleImg2x(img, IMG_WIDTH, IMG_HEIGHT, 2);
 40424ac:	d0a03d17 	ldw	r2,-32524(gp)
 40424b0:	1009883a 	mov	r4,r2
 40424b4:	4055f3c0 	call	4055f3c <OSSemPost>
 40424b8:	01c00084 	movi	r7,2
 40424bc:	01801e04 	movi	r6,120
 40424c0:	01402804 	movi	r5,160
 40424c4:	e13ffb17 	ldw	r4,-20(fp)
 40424c8:	4040aa80 	call	4040aa8 <downscaleImg2x>
 40424cc:	e0bffc15 	stw	r2,-16(fp)
			imageToBuffer(imgDS,IMG_WIDTH/2,IMG_HEIGHT/2*IMG_WIDTH);
 40424d0:	01896004 	movi	r6,9600
 40424d4:	01401404 	movi	r5,80
 40424d8:	e13ffc17 	ldw	r4,-16(fp)
 40424dc:	40407140 	call	4040714 <imageToBuffer>
			break;
 40424e0:	00001906 	br	4042548 <imageFourTask+0x1e4>
		//Edge
		case 0b11:
			// Hold Access to image while we retrieve data. Otherwise we will get tearing (if this was video data)
			OSSemPend(semLockEdgeImgPointer,0,&err);
 40424e4:	d0a03517 	ldw	r2,-32556(gp)
 40424e8:	e0fffe04 	addi	r3,fp,-8
 40424ec:	180d883a 	mov	r6,r3
 40424f0:	000b883a 	mov	r5,zero
 40424f4:	1009883a 	mov	r4,r2
 40424f8:	4055bc40 	call	4055bc4 <OSSemPend>
			img = imgToPtr(EDGEIMG_BASE, BUF_MAX_PIX);
 40424fc:	0152c004 	movi	r5,19200
 4042500:	010000b4 	movhi	r4,2
 4042504:	21160004 	addi	r4,r4,22528
 4042508:	4041be40 	call	4041be4 <imgToPtr>
 404250c:	e0bffb15 	stw	r2,-20(fp)
			OSSemPost(semLockEdgeImgPointer);
 4042510:	d0a03517 	ldw	r2,-32556(gp)
 4042514:	1009883a 	mov	r4,r2
 4042518:	4055f3c0 	call	4055f3c <OSSemPost>
			imgDS = downscaleImg2x(img, IMG_WIDTH, IMG_HEIGHT, 2);
 404251c:	01c00084 	movi	r7,2
 4042520:	01801e04 	movi	r6,120
 4042524:	01402804 	movi	r5,160
 4042528:	e13ffb17 	ldw	r4,-20(fp)
 404252c:	4040aa80 	call	4040aa8 <downscaleImg2x>
 4042530:	e0bffc15 	stw	r2,-16(fp)
			imageToBuffer(imgDS,IMG_WIDTH/2,IMG_HEIGHT/2*IMG_WIDTH);
 4042534:	01896004 	movi	r6,9600
 4042538:	01401404 	movi	r5,80
 404253c:	e13ffc17 	ldw	r4,-16(fp)
 4042540:	40407140 	call	4040714 <imageToBuffer>
			break;
 4042544:	0001883a 	nop
		}
		free(img);
 4042548:	e13ffb17 	ldw	r4,-20(fp)
 404254c:	40430800 	call	4043080 <free>
		free(imgDS);
 4042550:	e13ffc17 	ldw	r4,-16(fp)
 4042554:	40430800 	call	4043080 <free>

		OSSemPost(semDisplay1);
 4042558:	d0a03b17 	ldw	r2,-32532(gp)
 404255c:	1009883a 	mov	r4,r2
 4042560:	4055f3c0 	call	4055f3c <OSSemPost>
		OSTimeDlyHMSM(0, 0, 0, 250);
 4042564:	01c03e84 	movi	r7,250
 4042568:	000d883a 	mov	r6,zero
 404256c:	000b883a 	mov	r5,zero
 4042570:	0009883a 	mov	r4,zero
 4042574:	4057acc0 	call	4057acc <OSTimeDlyHMSM>
	}
 4042578:	003f7f06 	br	4042378 <__flash_rwdata_start+0xfffe7c48>

0404257c <buttonManagerTask>:
}
void buttonManagerTask (void* pdata) {
 404257c:	defffc04 	addi	sp,sp,-16
 4042580:	dfc00315 	stw	ra,12(sp)
 4042584:	df000215 	stw	fp,8(sp)
 4042588:	df000204 	addi	fp,sp,8
 404258c:	e13fff15 	stw	r4,-4(fp)
	INT8U semPendErr;
	while (1) {
		// Wait for interrupt
		OSSemPend(semKeyChange,0,&semPendErr);
 4042590:	d0a04117 	ldw	r2,-32508(gp)
 4042594:	e1bffe04 	addi	r6,fp,-8
 4042598:	000b883a 	mov	r5,zero
 404259c:	1009883a 	mov	r4,r2
 40425a0:	4055bc40 	call	4055bc4 <OSSemPend>
		// Received Interrupt Semaphore (GO TIME)
		// Flip the flag in the global variable as required and redraw image
		flipImgFlags ^= keyPressedContext;
 40425a4:	d0a03a17 	ldw	r2,-32536(gp)
 40425a8:	1007883a 	mov	r3,r2
 40425ac:	d0a02f03 	ldbu	r2,-32580(gp)
 40425b0:	1884f03a 	xor	r2,r3,r2
 40425b4:	d0a02f05 	stb	r2,-32580(gp)
		//writeImage(flipImgFlags);
		//printf(" FLIP FLAGS %x\n",flipImgFlags);
	}
 40425b8:	003ff506 	br	4042590 <__flash_rwdata_start+0xfffe7e60>

040425bc <switchManagerTask>:
}

void switchManagerTask (void* pdata) {
 40425bc:	defffc04 	addi	sp,sp,-16
 40425c0:	dfc00315 	stw	ra,12(sp)
 40425c4:	df000215 	stw	fp,8(sp)
 40425c8:	df000204 	addi	fp,sp,8
 40425cc:	e13fff15 	stw	r4,-4(fp)
	INT8U semPendErr;
	INT8U err2;
	while (1) {
		// Wait for interrupt
		OSSemPend(semSwitchChange,0,&semPendErr);
 40425d0:	d0a03917 	ldw	r2,-32540(gp)
 40425d4:	e1bffe04 	addi	r6,fp,-8
 40425d8:	000b883a 	mov	r5,zero
 40425dc:	1009883a 	mov	r4,r2
 40425e0:	4055bc40 	call	4055bc4 <OSSemPend>
		// Received Interrupt Semaphore (GO TIME)
		currentlyDislayed = IORD(SW_IN_BASE,0) >> 8;
 40425e4:	00810234 	movhi	r2,1032
 40425e8:	10842804 	addi	r2,r2,4256
 40425ec:	10800037 	ldwio	r2,0(r2)
 40425f0:	1005d23a 	srai	r2,r2,8
 40425f4:	d0a03415 	stw	r2,-32560(gp)
		} else if ((SwChangedContext & 0b11000000) != 0) {
			err2 = OSSemPost(semDisplay4);
			if (err2 != OS_NO_ERR) printf("Failed to post sem4: %x\n",err2);
			printf("SW4\n");
		}*/
	}
 40425f8:	003ff506 	br	40425d0 <__flash_rwdata_start+0xfffe7ea0>

040425fc <imageProcessorTask>:
}

/* Processes Images */
void imageProcessorTask(void* pdata)
{
 40425fc:	defff704 	addi	sp,sp,-36
 4042600:	dfc00815 	stw	ra,32(sp)
 4042604:	df000715 	stw	fp,28(sp)
 4042608:	df000704 	addi	fp,sp,28
 404260c:	e13fff15 	stw	r4,-4(fp)
	// Create Sem Error Variable
	INT8U semPendErr;

	// Define Img Effect Pointers
	int* img;
	int* imgFlipped = NULL;
 4042610:	e03ff915 	stw	zero,-28(fp)
	int* imgBlurred = NULL;
 4042614:	e03ffa15 	stw	zero,-24(fp)
	int* imgEdgeDetect = NULL;
 4042618:	e03ffb15 	stw	zero,-20(fp)

	// Preload image (this will be replaced when
	// we implement image switching with the switches)
	OSSemPend(semLockBaseImgPointer,0,&semPendErr);
 404261c:	d0a03f17 	ldw	r2,-32516(gp)
 4042620:	e0fffe04 	addi	r3,fp,-8
 4042624:	180d883a 	mov	r6,r3
 4042628:	000b883a 	mov	r5,zero
 404262c:	1009883a 	mov	r4,r2
 4042630:	4055bc40 	call	4055bc4 <OSSemPend>
	img = imgToPtr(SDRAM_BASEADDR,BUF_MAX_PIX);
 4042634:	0152c004 	movi	r5,19200
 4042638:	0009883a 	mov	r4,zero
 404263c:	4041be40 	call	4041be4 <imgToPtr>
 4042640:	e0bffc15 	stw	r2,-16(fp)
	OSSemPost(semLockBaseImgPointer);
 4042644:	d0a03f17 	ldw	r2,-32516(gp)
 4042648:	1009883a 	mov	r4,r2
 404264c:	4055f3c0 	call	4055f3c <OSSemPost>
	#if VERSION == 1
	int* edgeResH = NULL;
	int* edgeResV = NULL;
	#endif

	INT32U timeTemp = 0;
 4042650:	e03ffd15 	stw	zero,-12(fp)
	{
		#if ENABLE_DEBUG_OUTPUT
		printf("ImgProcess GO!\n");
		#endif
		// Lock Pointers
		OSSemPend(semLockFlipImgPointer,0,&semPendErr);
 4042654:	d0a04017 	ldw	r2,-32512(gp)
 4042658:	e0fffe04 	addi	r3,fp,-8
 404265c:	180d883a 	mov	r6,r3
 4042660:	000b883a 	mov	r5,zero
 4042664:	1009883a 	mov	r4,r2
 4042668:	4055bc40 	call	4055bc4 <OSSemPend>
		OSSemPend(semLockBlurImgPointer,0,&semPendErr);
 404266c:	d0a03d17 	ldw	r2,-32524(gp)
 4042670:	e0fffe04 	addi	r3,fp,-8
 4042674:	180d883a 	mov	r6,r3
 4042678:	000b883a 	mov	r5,zero
 404267c:	1009883a 	mov	r4,r2
 4042680:	4055bc40 	call	4055bc4 <OSSemPend>
		OSSemPend(semLockEdgeImgPointer,0,&semPendErr);
 4042684:	d0a03517 	ldw	r2,-32556(gp)
 4042688:	e0fffe04 	addi	r3,fp,-8
 404268c:	180d883a 	mov	r6,r3
 4042690:	000b883a 	mov	r5,zero
 4042694:	1009883a 	mov	r4,r2
 4042698:	4055bc40 	call	4055bc4 <OSSemPend>

		// Free Pointers to prevent Memory Leak
		free(imgFlipped);
 404269c:	e13ff917 	ldw	r4,-28(fp)
 40426a0:	40430800 	call	4043080 <free>
		free(imgBlurred);
 40426a4:	e13ffa17 	ldw	r4,-24(fp)
 40426a8:	40430800 	call	4043080 <free>
		free(imgEdgeDetect);
 40426ac:	e13ffb17 	ldw	r4,-20(fp)
 40426b0:	40430800 	call	4043080 <free>
		//  -- Process Image --
		// Flip Image
		timeTemp = OSTimeGet();
 40426b4:	4057df40 	call	4057df4 <OSTimeGet>
 40426b8:	e0bffd15 	stw	r2,-12(fp)
		imgFlipped = reverseImg(img, BUF_MAX_PIX);
 40426bc:	0152c004 	movi	r5,19200
 40426c0:	e13ffc17 	ldw	r4,-16(fp)
 40426c4:	4041b300 	call	4041b30 <reverseImg>
 40426c8:	e0bff915 	stw	r2,-28(fp)
		flipTime = OSTimeGet()-timeTemp;
 40426cc:	4057df40 	call	4057df4 <OSTimeGet>
 40426d0:	1007883a 	mov	r3,r2
 40426d4:	e0bffd17 	ldw	r2,-12(fp)
 40426d8:	1885c83a 	sub	r2,r3,r2
 40426dc:	d0a03015 	stw	r2,-32576(gp)

		// Blur image
		timeTemp = OSTimeGet();
 40426e0:	4057df40 	call	4057df4 <OSTimeGet>
 40426e4:	e0bffd15 	stw	r2,-12(fp)
		#if VERSION == 2
		imgBlurred = fastBlurImg(img, IMG_WIDTH, IMG_HEIGHT);
 40426e8:	01801e04 	movi	r6,120
 40426ec:	01402804 	movi	r5,160
 40426f0:	e13ffc17 	ldw	r4,-16(fp)
 40426f4:	404181c0 	call	404181c <fastBlurImg>
 40426f8:	e0bffa15 	stw	r2,-24(fp)
		#else
		imgBlurred = blurImgConv(img, IMG_WIDTH, IMG_HEIGHT);
		#endif
		blurTime = OSTimeGet()-timeTemp;
 40426fc:	4057df40 	call	4057df4 <OSTimeGet>
 4042700:	1007883a 	mov	r3,r2
 4042704:	e0bffd17 	ldw	r2,-12(fp)
 4042708:	1885c83a 	sub	r2,r3,r2
 404270c:	d0a03115 	stw	r2,-32572(gp)

		// Perform Edge detection
		timeTemp = OSTimeGet();
 4042710:	4057df40 	call	4057df4 <OSTimeGet>
 4042714:	e0bffd15 	stw	r2,-12(fp)
		#if VERSION == 2
		imgEdgeDetect = fastEdgeDetection(img, IMG_WIDTH, IMG_HEIGHT);
 4042718:	01801e04 	movi	r6,120
 404271c:	01402804 	movi	r5,160
 4042720:	e13ffc17 	ldw	r4,-16(fp)
 4042724:	40411e80 	call	40411e8 <fastEdgeDetection>
 4042728:	e0bffb15 	stw	r2,-20(fp)
		#else
		edgeResH = edgeDetectionConv(img, IMG_WIDTH, IMG_HEIGHT, 0);
		edgeResV = edgeDetectionConv(img, IMG_WIDTH, IMG_HEIGHT, 1);
		imgEdgeDetect = processEdgeDetection(edgeResH, edgeResV, (*edgeResH)*(*(edgeResH+1)));
		#endif
		edgeTime = OSTimeGet()-timeTemp;
 404272c:	4057df40 	call	4057df4 <OSTimeGet>
 4042730:	1007883a 	mov	r3,r2
 4042734:	e0bffd17 	ldw	r2,-12(fp)
 4042738:	1885c83a 	sub	r2,r3,r2
 404273c:	d0a03215 	stw	r2,-32568(gp)

		totalTime = flipTime+edgeTime+blurTime;
 4042740:	d0e03017 	ldw	r3,-32576(gp)
 4042744:	d0a03217 	ldw	r2,-32568(gp)
 4042748:	1887883a 	add	r3,r3,r2
 404274c:	d0a03117 	ldw	r2,-32572(gp)
 4042750:	1885883a 	add	r2,r3,r2
 4042754:	d0a03315 	stw	r2,-32564(gp)
		// Save to SDRAM
		imgToSDRAM(imgFlipped,    FLIPIMG_BASE, BUF_MAX_PIX, 0);
 4042758:	000f883a 	mov	r7,zero
 404275c:	0192c004 	movi	r6,19200
 4042760:	01400074 	movhi	r5,1
 4042764:	294b0004 	addi	r5,r5,11264
 4042768:	e13ff917 	ldw	r4,-28(fp)
 404276c:	4041c880 	call	4041c88 <imgToSDRAM>
		imgToSDRAM(imgEdgeDetect, EDGEIMG_BASE, BUF_MAX_PIX, 2);
 4042770:	01c00084 	movi	r7,2
 4042774:	0192c004 	movi	r6,19200
 4042778:	014000b4 	movhi	r5,2
 404277c:	29560004 	addi	r5,r5,22528
 4042780:	e13ffb17 	ldw	r4,-20(fp)
 4042784:	4041c880 	call	4041c88 <imgToSDRAM>
		imgToSDRAM(imgBlurred,    BLURING_BASE, BUF_MAX_PIX, 2);
 4042788:	01c00084 	movi	r7,2
 404278c:	0192c004 	movi	r6,19200
 4042790:	01400134 	movhi	r5,4
 4042794:	29610004 	addi	r5,r5,-31744
 4042798:	e13ffa17 	ldw	r4,-24(fp)
 404279c:	4041c880 	call	4041c88 <imgToSDRAM>

		// Release img pointers so they can be displayed
		OSSemPost(semLockFlipImgPointer);
 40427a0:	d0a04017 	ldw	r2,-32512(gp)
 40427a4:	1009883a 	mov	r4,r2
 40427a8:	4055f3c0 	call	4055f3c <OSSemPost>
		OSSemPost(semLockBlurImgPointer);
 40427ac:	d0a03d17 	ldw	r2,-32524(gp)
 40427b0:	1009883a 	mov	r4,r2
 40427b4:	4055f3c0 	call	4055f3c <OSSemPost>
		OSSemPost(semLockEdgeImgPointer);
 40427b8:	d0a03517 	ldw	r2,-32556(gp)
 40427bc:	1009883a 	mov	r4,r2
 40427c0:	4055f3c0 	call	4055f3c <OSSemPost>

		// Delay for 500ms
		OSTimeDlyHMSM(0, 0, 0, 500);
 40427c4:	01c07d04 	movi	r7,500
 40427c8:	000d883a 	mov	r6,zero
 40427cc:	000b883a 	mov	r5,zero
 40427d0:	0009883a 	mov	r4,zero
 40427d4:	4057acc0 	call	4057acc <OSTimeDlyHMSM>
	}
 40427d8:	003f9e06 	br	4042654 <__flash_rwdata_start+0xfffe7f24>

040427dc <mainTask>:
}


void mainTask(void* pdata)
{
 40427dc:	defff504 	addi	sp,sp,-44
 40427e0:	dfc00a15 	stw	ra,40(sp)
 40427e4:	df000915 	stw	fp,36(sp)
 40427e8:	df000904 	addi	fp,sp,36
 40427ec:	e13fff15 	stw	r4,-4(fp)
	// Compute CPU capacity with no task running
	INT8U err;
	OSStatInit();
 40427f0:	40512d00 	call	40512d0 <OSStatInit>

	// Create Semaphores and IRQHs
	semLockFlipImgPointer = OSSemCreate(1);
 40427f4:	01000044 	movi	r4,1
 40427f8:	40558ac0 	call	40558ac <OSSemCreate>
 40427fc:	d0a04015 	stw	r2,-32512(gp)
	semLockBlurImgPointer = OSSemCreate(1);
 4042800:	01000044 	movi	r4,1
 4042804:	40558ac0 	call	40558ac <OSSemCreate>
 4042808:	d0a03d15 	stw	r2,-32524(gp)
	semLockEdgeImgPointer = OSSemCreate(1);
 404280c:	01000044 	movi	r4,1
 4042810:	40558ac0 	call	40558ac <OSSemCreate>
 4042814:	d0a03515 	stw	r2,-32556(gp)
	semLockBaseImgPointer = OSSemCreate(1);
 4042818:	01000044 	movi	r4,1
 404281c:	40558ac0 	call	40558ac <OSSemCreate>
 4042820:	d0a03f15 	stw	r2,-32516(gp)

	semSwitchChange = OSSemCreate(1);
 4042824:	01000044 	movi	r4,1
 4042828:	40558ac0 	call	40558ac <OSSemCreate>
 404282c:	d0a03915 	stw	r2,-32540(gp)
	semKeyChange = OSSemCreate(1);
 4042830:	01000044 	movi	r4,1
 4042834:	40558ac0 	call	40558ac <OSSemCreate>
 4042838:	d0a04115 	stw	r2,-32508(gp)

	// Semaphores to block the image display tasks
	semDisplay1 = OSSemCreate(1);
 404283c:	01000044 	movi	r4,1
 4042840:	40558ac0 	call	40558ac <OSSemCreate>
 4042844:	d0a03b15 	stw	r2,-32532(gp)
	semDisplay2 = OSSemCreate(1);
 4042848:	01000044 	movi	r4,1
 404284c:	40558ac0 	call	40558ac <OSSemCreate>
 4042850:	d0a03e15 	stw	r2,-32520(gp)
	semDisplay3 = OSSemCreate(1);
 4042854:	01000044 	movi	r4,1
 4042858:	40558ac0 	call	40558ac <OSSemCreate>
 404285c:	d0a03715 	stw	r2,-32548(gp)
	semDisplay4 = OSSemCreate(1);
 4042860:	01000044 	movi	r4,1
 4042864:	40558ac0 	call	40558ac <OSSemCreate>
 4042868:	d0a03615 	stw	r2,-32552(gp)

	// Do this to cause the image tasks
	// to run in a Round-Robin style
	// Otherwise Disp4 takes forever
	OSSemPend(semDisplay2,0,&err);
 404286c:	d0a03e17 	ldw	r2,-32520(gp)
 4042870:	e0fffe04 	addi	r3,fp,-8
 4042874:	180d883a 	mov	r6,r3
 4042878:	000b883a 	mov	r5,zero
 404287c:	1009883a 	mov	r4,r2
 4042880:	4055bc40 	call	4055bc4 <OSSemPend>
	OSSemPend(semDisplay3,0,&err);
 4042884:	d0a03717 	ldw	r2,-32548(gp)
 4042888:	e0fffe04 	addi	r3,fp,-8
 404288c:	180d883a 	mov	r6,r3
 4042890:	000b883a 	mov	r5,zero
 4042894:	1009883a 	mov	r4,r2
 4042898:	4055bc40 	call	4055bc4 <OSSemPend>
	OSSemPend(semDisplay4,0,&err);
 404289c:	d0a03617 	ldw	r2,-32552(gp)
 40428a0:	e0fffe04 	addi	r3,fp,-8
 40428a4:	180d883a 	mov	r6,r3
 40428a8:	000b883a 	mov	r5,zero
 40428ac:	1009883a 	mov	r4,r2
 40428b0:	4055bc40 	call	4055bc4 <OSSemPend>

	initButtonIRQ();
 40428b4:	404063c0 	call	404063c <initButtonIRQ>
	initSwIRQ();
 40428b8:	40406a80 	call	40406a8 <initSwIRQ>

	/* --------------
		CREATE TASKS
	   -------------- */
	// Create buttonManagerTask to handle IRQ
	printf("Attempting to create buttonManagerTask\n");
 40428bc:	01008034 	movhi	r4,512
 40428c0:	21001604 	addi	r4,r4,88
 40428c4:	4043b140 	call	4043b14 <puts>
	error_code = OSTaskCreateExt(buttonManagerTask,
 40428c8:	d8000415 	stw	zero,16(sp)
 40428cc:	d8000315 	stw	zero,12(sp)
 40428d0:	00800084 	movi	r2,2
 40428d4:	d8800215 	stw	r2,8(sp)
 40428d8:	00808074 	movhi	r2,513
 40428dc:	1080d904 	addi	r2,r2,868
 40428e0:	d8800115 	stw	r2,4(sp)
 40428e4:	00800084 	movi	r2,2
 40428e8:	d8800015 	stw	r2,0(sp)
 40428ec:	01c00084 	movi	r7,2
 40428f0:	01808074 	movhi	r6,513
 40428f4:	3188d804 	addi	r6,r6,9056
 40428f8:	000b883a 	mov	r5,zero
 40428fc:	01010134 	movhi	r4,1028
 4042900:	21095f04 	addi	r4,r4,9596
 4042904:	40568f80 	call	40568f8 <OSTaskCreateExt>
 4042908:	10803fcc 	andi	r2,r2,255
 404290c:	e0bffd15 	stw	r2,-12(fp)
				  BUTTONMANAGERTASK_PRIORITY,
				  buttonManagerTask_stk,
				  BUTTONMANAGERTASK_PRIORITY,
				  NULL,
				  0);
	printf(" --> ");
 4042910:	01008034 	movhi	r4,512
 4042914:	21002004 	addi	r4,r4,128
 4042918:	4043a180 	call	4043a18 <printf>
	if (error_code != 0) printf("Error creating buttonManagerTask with error code %d\n", error_code); else printf("Created task successfully\n");
 404291c:	e0bffd17 	ldw	r2,-12(fp)
 4042920:	10000526 	beq	r2,zero,4042938 <mainTask+0x15c>
 4042924:	e17ffd17 	ldw	r5,-12(fp)
 4042928:	01008034 	movhi	r4,512
 404292c:	21002204 	addi	r4,r4,136
 4042930:	4043a180 	call	4043a18 <printf>
 4042934:	00000306 	br	4042944 <mainTask+0x168>
 4042938:	01008034 	movhi	r4,512
 404293c:	21003004 	addi	r4,r4,192
 4042940:	4043b140 	call	4043b14 <puts>

	printf("Attempting to create imageProcessorTask\n");
 4042944:	01008034 	movhi	r4,512
 4042948:	21003704 	addi	r4,r4,220
 404294c:	4043b140 	call	4043b14 <puts>
	error_code = OSTaskCreateExt(imageProcessorTask,
 4042950:	d8000415 	stw	zero,16(sp)
 4042954:	d8000315 	stw	zero,12(sp)
 4042958:	00800204 	movi	r2,8
 404295c:	d8800215 	stw	r2,8(sp)
 4042960:	00808034 	movhi	r2,512
 4042964:	1098d904 	addi	r2,r2,25444
 4042968:	d8800115 	stw	r2,4(sp)
 404296c:	00800204 	movi	r2,8
 4042970:	d8800015 	stw	r2,0(sp)
 4042974:	01c00204 	movi	r7,8
 4042978:	01808074 	movhi	r6,513
 404297c:	31a0d804 	addi	r6,r6,-31904
 4042980:	000b883a 	mov	r5,zero
 4042984:	01010134 	movhi	r4,1028
 4042988:	21097f04 	addi	r4,r4,9724
 404298c:	40568f80 	call	40568f8 <OSTaskCreateExt>
 4042990:	10803fcc 	andi	r2,r2,255
 4042994:	e0bffd15 	stw	r2,-12(fp)
				  IMAGEPROCESSORTASK_PRIORITY,
				  imageProcessorTask_stk,
				  IMAGEPROCESSORTASK_PRIORITY,
				  NULL,
				  0);
	printf(" --> ");
 4042998:	01008034 	movhi	r4,512
 404299c:	21002004 	addi	r4,r4,128
 40429a0:	4043a180 	call	4043a18 <printf>
	if (error_code != 0) printf("Error creating imageProcessorTask with error code %d\n", error_code); else printf("Created task successfully\n");
 40429a4:	e0bffd17 	ldw	r2,-12(fp)
 40429a8:	10000526 	beq	r2,zero,40429c0 <mainTask+0x1e4>
 40429ac:	e17ffd17 	ldw	r5,-12(fp)
 40429b0:	01008034 	movhi	r4,512
 40429b4:	21004104 	addi	r4,r4,260
 40429b8:	4043a180 	call	4043a18 <printf>
 40429bc:	00000306 	br	40429cc <mainTask+0x1f0>
 40429c0:	01008034 	movhi	r4,512
 40429c4:	21003004 	addi	r4,r4,192
 40429c8:	4043b140 	call	4043b14 <puts>
	//First Quadrant image
	printf("Attempting to create imageOneTask\n");
 40429cc:	01008034 	movhi	r4,512
 40429d0:	21004f04 	addi	r4,r4,316
 40429d4:	4043b140 	call	4043b14 <puts>
	error_code = OSTaskCreateExt(imageOneTask,
 40429d8:	d8000415 	stw	zero,16(sp)
 40429dc:	d8000315 	stw	zero,12(sp)
 40429e0:	00800244 	movi	r2,9
 40429e4:	d8800215 	stw	r2,8(sp)
 40429e8:	00808074 	movhi	r2,513
 40429ec:	10a0d904 	addi	r2,r2,-31900
 40429f0:	d8800115 	stw	r2,4(sp)
 40429f4:	00800244 	movi	r2,9
 40429f8:	d8800015 	stw	r2,0(sp)
 40429fc:	01c00244 	movi	r7,9
 4042a00:	01808074 	movhi	r6,513
 4042a04:	31a8d804 	addi	r6,r6,-23712
 4042a08:	000b883a 	mov	r5,zero
 4042a0c:	01010134 	movhi	r4,1028
 4042a10:	21074804 	addi	r4,r4,7456
 4042a14:	40568f80 	call	40568f8 <OSTaskCreateExt>
 4042a18:	10803fcc 	andi	r2,r2,255
 4042a1c:	e0bffd15 	stw	r2,-12(fp)
		IMAGEONETASK_PRIORITY,
		imageOneTask_stk,
		IMAGEONETASK_PRIORITY,
		NULL,
		0);
	printf(" --> ");
 4042a20:	01008034 	movhi	r4,512
 4042a24:	21002004 	addi	r4,r4,128
 4042a28:	4043a180 	call	4043a18 <printf>
	if (error_code != 0) printf("Error creating imageOneTask with error code %d\n", error_code); else printf("Created task successfully\n");
 4042a2c:	e0bffd17 	ldw	r2,-12(fp)
 4042a30:	10000526 	beq	r2,zero,4042a48 <mainTask+0x26c>
 4042a34:	e17ffd17 	ldw	r5,-12(fp)
 4042a38:	01008034 	movhi	r4,512
 4042a3c:	21005804 	addi	r4,r4,352
 4042a40:	4043a180 	call	4043a18 <printf>
 4042a44:	00000306 	br	4042a54 <mainTask+0x278>
 4042a48:	01008034 	movhi	r4,512
 4042a4c:	21003004 	addi	r4,r4,192
 4042a50:	4043b140 	call	4043b14 <puts>

	//Second quadrant image
	printf("Attempting to create imageTwoTask\n");
 4042a54:	01008034 	movhi	r4,512
 4042a58:	21006404 	addi	r4,r4,400
 4042a5c:	4043b140 	call	4043b14 <puts>
	error_code = OSTaskCreateExt(imageTwoTask,
 4042a60:	d8000415 	stw	zero,16(sp)
 4042a64:	d8000315 	stw	zero,12(sp)
 4042a68:	00800284 	movi	r2,10
 4042a6c:	d8800215 	stw	r2,8(sp)
 4042a70:	00808074 	movhi	r2,513
 4042a74:	10b0d904 	addi	r2,r2,-15516
 4042a78:	d8800115 	stw	r2,4(sp)
 4042a7c:	00800284 	movi	r2,10
 4042a80:	d8800015 	stw	r2,0(sp)
 4042a84:	01c00284 	movi	r7,10
 4042a88:	01808074 	movhi	r6,513
 4042a8c:	31b8d804 	addi	r6,r6,-7328
 4042a90:	000b883a 	mov	r5,zero
 4042a94:	01010134 	movhi	r4,1028
 4042a98:	2107cd04 	addi	r4,r4,7988
 4042a9c:	40568f80 	call	40568f8 <OSTaskCreateExt>
 4042aa0:	10803fcc 	andi	r2,r2,255
 4042aa4:	e0bffd15 	stw	r2,-12(fp)
		IMAGETWOTASK_PRIORITY,
		imageTwoTask_stk,
		IMAGETWOTASK_PRIORITY,
		NULL,
		0);
	printf(" --> ");
 4042aa8:	01008034 	movhi	r4,512
 4042aac:	21002004 	addi	r4,r4,128
 4042ab0:	4043a180 	call	4043a18 <printf>
	if (error_code != 0) printf("Error creating imageOneTask with error code %d\n", error_code); else printf("Created task successfully\n");
 4042ab4:	e0bffd17 	ldw	r2,-12(fp)
 4042ab8:	10000526 	beq	r2,zero,4042ad0 <mainTask+0x2f4>
 4042abc:	e17ffd17 	ldw	r5,-12(fp)
 4042ac0:	01008034 	movhi	r4,512
 4042ac4:	21005804 	addi	r4,r4,352
 4042ac8:	4043a180 	call	4043a18 <printf>
 4042acc:	00000306 	br	4042adc <mainTask+0x300>
 4042ad0:	01008034 	movhi	r4,512
 4042ad4:	21003004 	addi	r4,r4,192
 4042ad8:	4043b140 	call	4043b14 <puts>

	//Third quadrant image
	printf("Attempting to create imageThreeTask\n");
 4042adc:	01008034 	movhi	r4,512
 4042ae0:	21006d04 	addi	r4,r4,436
 4042ae4:	4043b140 	call	4043b14 <puts>
	error_code = OSTaskCreateExt(imageThreeTask,
 4042ae8:	d8000415 	stw	zero,16(sp)
 4042aec:	d8000315 	stw	zero,12(sp)
 4042af0:	008002c4 	movi	r2,11
 4042af4:	d8800215 	stw	r2,8(sp)
 4042af8:	00808034 	movhi	r2,512
 4042afc:	1088d904 	addi	r2,r2,9060
 4042b00:	d8800115 	stw	r2,4(sp)
 4042b04:	008002c4 	movi	r2,11
 4042b08:	d8800015 	stw	r2,0(sp)
 4042b0c:	01c002c4 	movi	r7,11
 4042b10:	01808034 	movhi	r6,512
 4042b14:	3190d804 	addi	r6,r6,17248
 4042b18:	000b883a 	mov	r5,zero
 4042b1c:	01010134 	movhi	r4,1028
 4042b20:	21085304 	addi	r4,r4,8524
 4042b24:	40568f80 	call	40568f8 <OSTaskCreateExt>
 4042b28:	10803fcc 	andi	r2,r2,255
 4042b2c:	e0bffd15 	stw	r2,-12(fp)
		IMAGETHREETASK_PRIORITY,
		imageThreeTask_stk,
		IMAGETHREETASK_PRIORITY,
		NULL,
		0);
	printf(" --> ");
 4042b30:	01008034 	movhi	r4,512
 4042b34:	21002004 	addi	r4,r4,128
 4042b38:	4043a180 	call	4043a18 <printf>
	if (error_code != 0) printf("Error creating imageOneTask with error code %d\n", error_code); else printf("Created task successfully\n");
 4042b3c:	e0bffd17 	ldw	r2,-12(fp)
 4042b40:	10000526 	beq	r2,zero,4042b58 <mainTask+0x37c>
 4042b44:	e17ffd17 	ldw	r5,-12(fp)
 4042b48:	01008034 	movhi	r4,512
 4042b4c:	21005804 	addi	r4,r4,352
 4042b50:	4043a180 	call	4043a18 <printf>
 4042b54:	00000306 	br	4042b64 <mainTask+0x388>
 4042b58:	01008034 	movhi	r4,512
 4042b5c:	21003004 	addi	r4,r4,192
 4042b60:	4043b140 	call	4043b14 <puts>

	//Fourth quadrant image
	printf("Attempting to create imageFourTask\n");
 4042b64:	01008034 	movhi	r4,512
 4042b68:	21007604 	addi	r4,r4,472
 4042b6c:	4043b140 	call	4043b14 <puts>
	error_code = OSTaskCreateExt(imageFourTask,
 4042b70:	d8000415 	stw	zero,16(sp)
 4042b74:	d8000315 	stw	zero,12(sp)
 4042b78:	00800304 	movi	r2,12
 4042b7c:	d8800215 	stw	r2,8(sp)
 4042b80:	00808074 	movhi	r2,513
 4042b84:	10a8d904 	addi	r2,r2,-23708
 4042b88:	d8800115 	stw	r2,4(sp)
 4042b8c:	00800304 	movi	r2,12
 4042b90:	d8800015 	stw	r2,0(sp)
 4042b94:	01c00304 	movi	r7,12
 4042b98:	01808074 	movhi	r6,513
 4042b9c:	31b0d804 	addi	r6,r6,-15520
 4042ba0:	000b883a 	mov	r5,zero
 4042ba4:	01010134 	movhi	r4,1028
 4042ba8:	2108d904 	addi	r4,r4,9060
 4042bac:	40568f80 	call	40568f8 <OSTaskCreateExt>
 4042bb0:	10803fcc 	andi	r2,r2,255
 4042bb4:	e0bffd15 	stw	r2,-12(fp)
		IMAGEFOURTASK_PRIORITY,
		imageFourTask_stk,
		IMAGEFOURTASK_PRIORITY,
		NULL,
		0);
	printf(" --> ");
 4042bb8:	01008034 	movhi	r4,512
 4042bbc:	21002004 	addi	r4,r4,128
 4042bc0:	4043a180 	call	4043a18 <printf>
	if (error_code != 0) printf("Error creating imageOneTask with error code %d\n", error_code); else printf("Created task successfully\n");
 4042bc4:	e0bffd17 	ldw	r2,-12(fp)
 4042bc8:	10000526 	beq	r2,zero,4042be0 <mainTask+0x404>
 4042bcc:	e17ffd17 	ldw	r5,-12(fp)
 4042bd0:	01008034 	movhi	r4,512
 4042bd4:	21005804 	addi	r4,r4,352
 4042bd8:	4043a180 	call	4043a18 <printf>
 4042bdc:	00000306 	br	4042bec <mainTask+0x410>
 4042be0:	01008034 	movhi	r4,512
 4042be4:	21003004 	addi	r4,r4,192
 4042be8:	4043b140 	call	4043b14 <puts>

	//Switch manager
	printf("Attempting to create SwitchTask\n");
 4042bec:	01008034 	movhi	r4,512
 4042bf0:	21007f04 	addi	r4,r4,508
 4042bf4:	4043b140 	call	4043b14 <puts>
		error_code = OSTaskCreateExt(switchManagerTask,
 4042bf8:	d8000415 	stw	zero,16(sp)
 4042bfc:	d8000315 	stw	zero,12(sp)
 4042c00:	008000c4 	movi	r2,3
 4042c04:	d8800215 	stw	r2,8(sp)
 4042c08:	00808034 	movhi	r2,512
 4042c0c:	1090d904 	addi	r2,r2,17252
 4042c10:	d8800115 	stw	r2,4(sp)
 4042c14:	008000c4 	movi	r2,3
 4042c18:	d8800015 	stw	r2,0(sp)
 4042c1c:	01c000c4 	movi	r7,3
 4042c20:	01808034 	movhi	r6,512
 4042c24:	3198d804 	addi	r6,r6,25440
 4042c28:	000b883a 	mov	r5,zero
 4042c2c:	01010134 	movhi	r4,1028
 4042c30:	21096f04 	addi	r4,r4,9660
 4042c34:	40568f80 	call	40568f8 <OSTaskCreateExt>
 4042c38:	10803fcc 	andi	r2,r2,255
 4042c3c:	e0bffd15 	stw	r2,-12(fp)
			SWITCHMANAGERTASK_PRIORITY,
			switchManagerTask_stk,
			SWITCHMANAGERTASK_PRIORITY,
			NULL,
			0);
		printf(" --> ");
 4042c40:	01008034 	movhi	r4,512
 4042c44:	21002004 	addi	r4,r4,128
 4042c48:	4043a180 	call	4043a18 <printf>
		if (error_code != 0) printf("Error creating imageOneTask with error code %d\n", error_code); else printf("Created task successfully\n");
 4042c4c:	e0bffd17 	ldw	r2,-12(fp)
 4042c50:	10000526 	beq	r2,zero,4042c68 <mainTask+0x48c>
 4042c54:	e17ffd17 	ldw	r5,-12(fp)
 4042c58:	01008034 	movhi	r4,512
 4042c5c:	21005804 	addi	r4,r4,352
 4042c60:	4043a180 	call	4043a18 <printf>
 4042c64:	00000306 	br	4042c74 <mainTask+0x498>
 4042c68:	01008034 	movhi	r4,512
 4042c6c:	21003004 	addi	r4,r4,192
 4042c70:	4043b140 	call	4043b14 <puts>
	free(img);
	*/
	INT32U dispTime;
	while (1)
	{
		displayDigit (HEXDISPLAYS5TO3_BASE, 2, ((OSCPUUsage/10)%10));
 4042c74:	d0a05a03 	ldbu	r2,-32408(gp)
 4042c78:	10803fcc 	andi	r2,r2,255
 4042c7c:	01400284 	movi	r5,10
 4042c80:	1009883a 	mov	r4,r2
 4042c84:	4042fb00 	call	4042fb0 <__udivsi3>
 4042c88:	10803fcc 	andi	r2,r2,255
 4042c8c:	01400284 	movi	r5,10
 4042c90:	1009883a 	mov	r4,r2
 4042c94:	40430140 	call	4043014 <__umodsi3>
 4042c98:	10803fcc 	andi	r2,r2,255
 4042c9c:	100d883a 	mov	r6,r2
 4042ca0:	01400084 	movi	r5,2
 4042ca4:	01010234 	movhi	r4,1032
 4042ca8:	21041004 	addi	r4,r4,4160
 4042cac:	40408200 	call	4040820 <displayDigit>
		displayDigit (HEXDISPLAYS5TO3_BASE, 1, OSCPUUsage%10);
 4042cb0:	d0a05a03 	ldbu	r2,-32408(gp)
 4042cb4:	10803fcc 	andi	r2,r2,255
 4042cb8:	01400284 	movi	r5,10
 4042cbc:	1009883a 	mov	r4,r2
 4042cc0:	40430140 	call	4043014 <__umodsi3>
 4042cc4:	10803fcc 	andi	r2,r2,255
 4042cc8:	100d883a 	mov	r6,r2
 4042ccc:	01400044 	movi	r5,1
 4042cd0:	01010234 	movhi	r4,1032
 4042cd4:	21041004 	addi	r4,r4,4160
 4042cd8:	40408200 	call	4040820 <displayDigit>
		if (currentlyDislayed == 0){
 4042cdc:	d0a03417 	ldw	r2,-32560(gp)
 4042ce0:	1000031e 	bne	r2,zero,4042cf0 <mainTask+0x514>
			dispTime = flipTime;
 4042ce4:	d0a03017 	ldw	r2,-32576(gp)
 4042ce8:	e0bffc15 	stw	r2,-16(fp)
 4042cec:	00001106 	br	4042d34 <mainTask+0x558>
		}
		else if (currentlyDislayed == 1){
 4042cf0:	d0a03417 	ldw	r2,-32560(gp)
 4042cf4:	10800058 	cmpnei	r2,r2,1
 4042cf8:	1000031e 	bne	r2,zero,4042d08 <mainTask+0x52c>
			dispTime = blurTime;
 4042cfc:	d0a03117 	ldw	r2,-32572(gp)
 4042d00:	e0bffc15 	stw	r2,-16(fp)
 4042d04:	00000b06 	br	4042d34 <mainTask+0x558>
		}
		else if (currentlyDislayed == 2){
 4042d08:	d0a03417 	ldw	r2,-32560(gp)
 4042d0c:	10800098 	cmpnei	r2,r2,2
 4042d10:	1000031e 	bne	r2,zero,4042d20 <mainTask+0x544>
			dispTime = edgeTime;
 4042d14:	d0a03217 	ldw	r2,-32568(gp)
 4042d18:	e0bffc15 	stw	r2,-16(fp)
 4042d1c:	00000506 	br	4042d34 <mainTask+0x558>
		}
		else if (currentlyDislayed == 3){
 4042d20:	d0a03417 	ldw	r2,-32560(gp)
 4042d24:	108000d8 	cmpnei	r2,r2,3
 4042d28:	1000021e 	bne	r2,zero,4042d34 <mainTask+0x558>
			dispTime = totalTime;
 4042d2c:	d0a03317 	ldw	r2,-32564(gp)
 4042d30:	e0bffc15 	stw	r2,-16(fp)
		}
		displayDigit (HEXDISPLAYS5TO3_BASE, 0, (dispTime/1000)%10);
 4042d34:	e0bffc17 	ldw	r2,-16(fp)
 4042d38:	0140fa04 	movi	r5,1000
 4042d3c:	1009883a 	mov	r4,r2
 4042d40:	4042fb00 	call	4042fb0 <__udivsi3>
 4042d44:	01400284 	movi	r5,10
 4042d48:	1009883a 	mov	r4,r2
 4042d4c:	40430140 	call	4043014 <__umodsi3>
 4042d50:	100d883a 	mov	r6,r2
 4042d54:	000b883a 	mov	r5,zero
 4042d58:	01010234 	movhi	r4,1032
 4042d5c:	21041004 	addi	r4,r4,4160
 4042d60:	40408200 	call	4040820 <displayDigit>
		displayDigit (HEXDISPLAYS2TO0_BASE, 2, (dispTime/100)%10);
 4042d64:	e0bffc17 	ldw	r2,-16(fp)
 4042d68:	01401904 	movi	r5,100
 4042d6c:	1009883a 	mov	r4,r2
 4042d70:	4042fb00 	call	4042fb0 <__udivsi3>
 4042d74:	01400284 	movi	r5,10
 4042d78:	1009883a 	mov	r4,r2
 4042d7c:	40430140 	call	4043014 <__umodsi3>
 4042d80:	100d883a 	mov	r6,r2
 4042d84:	01400084 	movi	r5,2
 4042d88:	01010234 	movhi	r4,1032
 4042d8c:	21041404 	addi	r4,r4,4176
 4042d90:	40408200 	call	4040820 <displayDigit>
		displayDigit (HEXDISPLAYS2TO0_BASE, 1, (dispTime/10)%10);
 4042d94:	e0bffc17 	ldw	r2,-16(fp)
 4042d98:	01400284 	movi	r5,10
 4042d9c:	1009883a 	mov	r4,r2
 4042da0:	4042fb00 	call	4042fb0 <__udivsi3>
 4042da4:	01400284 	movi	r5,10
 4042da8:	1009883a 	mov	r4,r2
 4042dac:	40430140 	call	4043014 <__umodsi3>
 4042db0:	100d883a 	mov	r6,r2
 4042db4:	01400044 	movi	r5,1
 4042db8:	01010234 	movhi	r4,1032
 4042dbc:	21041404 	addi	r4,r4,4176
 4042dc0:	40408200 	call	4040820 <displayDigit>
		displayDigit (HEXDISPLAYS2TO0_BASE, 0, dispTime%10);
 4042dc4:	e0bffc17 	ldw	r2,-16(fp)
 4042dc8:	01400284 	movi	r5,10
 4042dcc:	1009883a 	mov	r4,r2
 4042dd0:	40430140 	call	4043014 <__umodsi3>
 4042dd4:	100d883a 	mov	r6,r2
 4042dd8:	000b883a 	mov	r5,zero
 4042ddc:	01010234 	movhi	r4,1032
 4042de0:	21041404 	addi	r4,r4,4176
 4042de4:	40408200 	call	4040820 <displayDigit>

		// Delay 1s
		OSTimeDlyHMSM(0, 0, 0, 200);
 4042de8:	01c03204 	movi	r7,200
 4042dec:	000d883a 	mov	r6,zero
 4042df0:	000b883a 	mov	r5,zero
 4042df4:	0009883a 	mov	r4,zero
 4042df8:	4057acc0 	call	4057acc <OSTimeDlyHMSM>
	}
 4042dfc:	003f9d06 	br	4042c74 <__flash_rwdata_start+0xfffe8544>

04042e00 <main>:
 *     	  BEGIN MAIN()       *
 * ------------------------- */

/* The main function creates two task and starts multi-tasking */
int main(void)
{
 4042e00:	defff804 	addi	sp,sp,-32
 4042e04:	dfc00715 	stw	ra,28(sp)
 4042e08:	df000615 	stw	fp,24(sp)
 4042e0c:	df000604 	addi	fp,sp,24
	/* --------------
		PERFORM INIT
	   -------------- */
	// Clear buffer
	clrBuffer();
 4042e10:	40402900 	call	4040290 <clrBuffer>

	// Clear Hex displays
	IOWR(HEXDISPLAYS2TO0_BASE, 0, 0xffffff);
 4042e14:	00c04034 	movhi	r3,256
 4042e18:	18ffffc4 	addi	r3,r3,-1
 4042e1c:	00810234 	movhi	r2,1032
 4042e20:	10841404 	addi	r2,r2,4176
 4042e24:	10c00035 	stwio	r3,0(r2)
	IOWR(HEXDISPLAYS5TO3_BASE, 0, 0xffffff);
 4042e28:	00c04034 	movhi	r3,256
 4042e2c:	18ffffc4 	addi	r3,r3,-1
 4042e30:	00810234 	movhi	r2,1032
 4042e34:	10841004 	addi	r2,r2,4160
 4042e38:	10c00035 	stwio	r3,0(r2)
	    CREATE MAIN TASK
	   ------------------ */
	// Check for errors
	int error_code;
	// Attempt to create the main Task
	error_code = OSTaskCreateExt(mainTask,
 4042e3c:	d8000415 	stw	zero,16(sp)
 4042e40:	d8000315 	stw	zero,12(sp)
 4042e44:	00800044 	movi	r2,1
 4042e48:	d8800215 	stw	r2,8(sp)
 4042e4c:	00808074 	movhi	r2,513
 4042e50:	10b8d904 	addi	r2,r2,-7324
 4042e54:	d8800115 	stw	r2,4(sp)
 4042e58:	00800044 	movi	r2,1
 4042e5c:	d8800015 	stw	r2,0(sp)
 4042e60:	01c00044 	movi	r7,1
 4042e64:	01808074 	movhi	r6,513
 4042e68:	3180d804 	addi	r6,r6,864
 4042e6c:	000b883a 	mov	r5,zero
 4042e70:	01010134 	movhi	r4,1028
 4042e74:	2109f704 	addi	r4,r4,10204
 4042e78:	40568f80 	call	40568f8 <OSTaskCreateExt>
 4042e7c:	10803fcc 	andi	r2,r2,255
 4042e80:	e0bfff15 	stw	r2,-4(fp)
				  MAINTASK_PRIORITY,
				  mainTask_stk,
				  MAINTASK_PRIORITY,
				  NULL,
				  0);
	if (error_code != 0) printf("Error creating mainTask with error code %d\n", error_code);
 4042e84:	e0bfff17 	ldw	r2,-4(fp)
 4042e88:	10000426 	beq	r2,zero,4042e9c <main+0x9c>
 4042e8c:	e17fff17 	ldw	r5,-4(fp)
 4042e90:	01008034 	movhi	r4,512
 4042e94:	21008704 	addi	r4,r4,540
 4042e98:	4043a180 	call	4043a18 <printf>
	/* --------------
		 START RTOS
	   -------------- */
	OSStart();
 4042e9c:	40512600 	call	4051260 <OSStart>
	return 0;
 4042ea0:	0005883a 	mov	r2,zero
}
 4042ea4:	e037883a 	mov	sp,fp
 4042ea8:	dfc00117 	ldw	ra,4(sp)
 4042eac:	df000017 	ldw	fp,0(sp)
 4042eb0:	dec00204 	addi	sp,sp,8
 4042eb4:	f800283a 	ret

04042eb8 <__divsi3>:
 4042eb8:	20001b16 	blt	r4,zero,4042f28 <__divsi3+0x70>
 4042ebc:	000f883a 	mov	r7,zero
 4042ec0:	28001616 	blt	r5,zero,4042f1c <__divsi3+0x64>
 4042ec4:	200d883a 	mov	r6,r4
 4042ec8:	29001a2e 	bgeu	r5,r4,4042f34 <__divsi3+0x7c>
 4042ecc:	00800804 	movi	r2,32
 4042ed0:	00c00044 	movi	r3,1
 4042ed4:	00000106 	br	4042edc <__divsi3+0x24>
 4042ed8:	10000d26 	beq	r2,zero,4042f10 <__divsi3+0x58>
 4042edc:	294b883a 	add	r5,r5,r5
 4042ee0:	10bfffc4 	addi	r2,r2,-1
 4042ee4:	18c7883a 	add	r3,r3,r3
 4042ee8:	293ffb36 	bltu	r5,r4,4042ed8 <__flash_rwdata_start+0xfffe87a8>
 4042eec:	0005883a 	mov	r2,zero
 4042ef0:	18000726 	beq	r3,zero,4042f10 <__divsi3+0x58>
 4042ef4:	0005883a 	mov	r2,zero
 4042ef8:	31400236 	bltu	r6,r5,4042f04 <__divsi3+0x4c>
 4042efc:	314dc83a 	sub	r6,r6,r5
 4042f00:	10c4b03a 	or	r2,r2,r3
 4042f04:	1806d07a 	srli	r3,r3,1
 4042f08:	280ad07a 	srli	r5,r5,1
 4042f0c:	183ffa1e 	bne	r3,zero,4042ef8 <__flash_rwdata_start+0xfffe87c8>
 4042f10:	38000126 	beq	r7,zero,4042f18 <__divsi3+0x60>
 4042f14:	0085c83a 	sub	r2,zero,r2
 4042f18:	f800283a 	ret
 4042f1c:	014bc83a 	sub	r5,zero,r5
 4042f20:	39c0005c 	xori	r7,r7,1
 4042f24:	003fe706 	br	4042ec4 <__flash_rwdata_start+0xfffe8794>
 4042f28:	0109c83a 	sub	r4,zero,r4
 4042f2c:	01c00044 	movi	r7,1
 4042f30:	003fe306 	br	4042ec0 <__flash_rwdata_start+0xfffe8790>
 4042f34:	00c00044 	movi	r3,1
 4042f38:	003fee06 	br	4042ef4 <__flash_rwdata_start+0xfffe87c4>

04042f3c <__modsi3>:
 4042f3c:	20001716 	blt	r4,zero,4042f9c <__modsi3+0x60>
 4042f40:	000f883a 	mov	r7,zero
 4042f44:	2005883a 	mov	r2,r4
 4042f48:	28001216 	blt	r5,zero,4042f94 <__modsi3+0x58>
 4042f4c:	2900162e 	bgeu	r5,r4,4042fa8 <__modsi3+0x6c>
 4042f50:	01800804 	movi	r6,32
 4042f54:	00c00044 	movi	r3,1
 4042f58:	00000106 	br	4042f60 <__modsi3+0x24>
 4042f5c:	30000a26 	beq	r6,zero,4042f88 <__modsi3+0x4c>
 4042f60:	294b883a 	add	r5,r5,r5
 4042f64:	31bfffc4 	addi	r6,r6,-1
 4042f68:	18c7883a 	add	r3,r3,r3
 4042f6c:	293ffb36 	bltu	r5,r4,4042f5c <__flash_rwdata_start+0xfffe882c>
 4042f70:	18000526 	beq	r3,zero,4042f88 <__modsi3+0x4c>
 4042f74:	1806d07a 	srli	r3,r3,1
 4042f78:	11400136 	bltu	r2,r5,4042f80 <__modsi3+0x44>
 4042f7c:	1145c83a 	sub	r2,r2,r5
 4042f80:	280ad07a 	srli	r5,r5,1
 4042f84:	183ffb1e 	bne	r3,zero,4042f74 <__flash_rwdata_start+0xfffe8844>
 4042f88:	38000126 	beq	r7,zero,4042f90 <__modsi3+0x54>
 4042f8c:	0085c83a 	sub	r2,zero,r2
 4042f90:	f800283a 	ret
 4042f94:	014bc83a 	sub	r5,zero,r5
 4042f98:	003fec06 	br	4042f4c <__flash_rwdata_start+0xfffe881c>
 4042f9c:	0109c83a 	sub	r4,zero,r4
 4042fa0:	01c00044 	movi	r7,1
 4042fa4:	003fe706 	br	4042f44 <__flash_rwdata_start+0xfffe8814>
 4042fa8:	00c00044 	movi	r3,1
 4042fac:	003ff106 	br	4042f74 <__flash_rwdata_start+0xfffe8844>

04042fb0 <__udivsi3>:
 4042fb0:	200d883a 	mov	r6,r4
 4042fb4:	2900152e 	bgeu	r5,r4,404300c <__udivsi3+0x5c>
 4042fb8:	28001416 	blt	r5,zero,404300c <__udivsi3+0x5c>
 4042fbc:	00800804 	movi	r2,32
 4042fc0:	00c00044 	movi	r3,1
 4042fc4:	00000206 	br	4042fd0 <__udivsi3+0x20>
 4042fc8:	10000e26 	beq	r2,zero,4043004 <__udivsi3+0x54>
 4042fcc:	28000516 	blt	r5,zero,4042fe4 <__udivsi3+0x34>
 4042fd0:	294b883a 	add	r5,r5,r5
 4042fd4:	10bfffc4 	addi	r2,r2,-1
 4042fd8:	18c7883a 	add	r3,r3,r3
 4042fdc:	293ffa36 	bltu	r5,r4,4042fc8 <__flash_rwdata_start+0xfffe8898>
 4042fe0:	18000826 	beq	r3,zero,4043004 <__udivsi3+0x54>
 4042fe4:	0005883a 	mov	r2,zero
 4042fe8:	31400236 	bltu	r6,r5,4042ff4 <__udivsi3+0x44>
 4042fec:	314dc83a 	sub	r6,r6,r5
 4042ff0:	10c4b03a 	or	r2,r2,r3
 4042ff4:	1806d07a 	srli	r3,r3,1
 4042ff8:	280ad07a 	srli	r5,r5,1
 4042ffc:	183ffa1e 	bne	r3,zero,4042fe8 <__flash_rwdata_start+0xfffe88b8>
 4043000:	f800283a 	ret
 4043004:	0005883a 	mov	r2,zero
 4043008:	f800283a 	ret
 404300c:	00c00044 	movi	r3,1
 4043010:	003ff406 	br	4042fe4 <__flash_rwdata_start+0xfffe88b4>

04043014 <__umodsi3>:
 4043014:	2005883a 	mov	r2,r4
 4043018:	2900122e 	bgeu	r5,r4,4043064 <__umodsi3+0x50>
 404301c:	28001116 	blt	r5,zero,4043064 <__umodsi3+0x50>
 4043020:	01800804 	movi	r6,32
 4043024:	00c00044 	movi	r3,1
 4043028:	00000206 	br	4043034 <__umodsi3+0x20>
 404302c:	30000c26 	beq	r6,zero,4043060 <__umodsi3+0x4c>
 4043030:	28000516 	blt	r5,zero,4043048 <__umodsi3+0x34>
 4043034:	294b883a 	add	r5,r5,r5
 4043038:	31bfffc4 	addi	r6,r6,-1
 404303c:	18c7883a 	add	r3,r3,r3
 4043040:	293ffa36 	bltu	r5,r4,404302c <__flash_rwdata_start+0xfffe88fc>
 4043044:	18000626 	beq	r3,zero,4043060 <__umodsi3+0x4c>
 4043048:	1806d07a 	srli	r3,r3,1
 404304c:	11400136 	bltu	r2,r5,4043054 <__umodsi3+0x40>
 4043050:	1145c83a 	sub	r2,r2,r5
 4043054:	280ad07a 	srli	r5,r5,1
 4043058:	183ffb1e 	bne	r3,zero,4043048 <__flash_rwdata_start+0xfffe8918>
 404305c:	f800283a 	ret
 4043060:	f800283a 	ret
 4043064:	00c00044 	movi	r3,1
 4043068:	003ff706 	br	4043048 <__flash_rwdata_start+0xfffe8918>

0404306c <malloc>:
 404306c:	00808034 	movhi	r2,512
 4043070:	10886904 	addi	r2,r2,8612
 4043074:	200b883a 	mov	r5,r4
 4043078:	11000017 	ldw	r4,0(r2)
 404307c:	40430941 	jmpi	4043094 <_malloc_r>

04043080 <free>:
 4043080:	00808034 	movhi	r2,512
 4043084:	10886904 	addi	r2,r2,8612
 4043088:	200b883a 	mov	r5,r4
 404308c:	11000017 	ldw	r4,0(r2)
 4043090:	404802c1 	jmpi	404802c <_free_r>

04043094 <_malloc_r>:
 4043094:	defff504 	addi	sp,sp,-44
 4043098:	dc800315 	stw	r18,12(sp)
 404309c:	dfc00a15 	stw	ra,40(sp)
 40430a0:	df000915 	stw	fp,36(sp)
 40430a4:	ddc00815 	stw	r23,32(sp)
 40430a8:	dd800715 	stw	r22,28(sp)
 40430ac:	dd400615 	stw	r21,24(sp)
 40430b0:	dd000515 	stw	r20,20(sp)
 40430b4:	dcc00415 	stw	r19,16(sp)
 40430b8:	dc400215 	stw	r17,8(sp)
 40430bc:	dc000115 	stw	r16,4(sp)
 40430c0:	288002c4 	addi	r2,r5,11
 40430c4:	00c00584 	movi	r3,22
 40430c8:	2025883a 	mov	r18,r4
 40430cc:	18807f2e 	bgeu	r3,r2,40432cc <_malloc_r+0x238>
 40430d0:	047ffe04 	movi	r17,-8
 40430d4:	1462703a 	and	r17,r2,r17
 40430d8:	8800a316 	blt	r17,zero,4043368 <_malloc_r+0x2d4>
 40430dc:	8940a236 	bltu	r17,r5,4043368 <_malloc_r+0x2d4>
 40430e0:	40505000 	call	4050500 <__malloc_lock>
 40430e4:	00807dc4 	movi	r2,503
 40430e8:	1441e92e 	bgeu	r2,r17,4043890 <_malloc_r+0x7fc>
 40430ec:	8804d27a 	srli	r2,r17,9
 40430f0:	1000a126 	beq	r2,zero,4043378 <_malloc_r+0x2e4>
 40430f4:	00c00104 	movi	r3,4
 40430f8:	18811e36 	bltu	r3,r2,4043574 <_malloc_r+0x4e0>
 40430fc:	8804d1ba 	srli	r2,r17,6
 4043100:	12000e44 	addi	r8,r2,57
 4043104:	11c00e04 	addi	r7,r2,56
 4043108:	4209883a 	add	r4,r8,r8
 404310c:	04c08034 	movhi	r19,512
 4043110:	2109883a 	add	r4,r4,r4
 4043114:	9cc1b804 	addi	r19,r19,1760
 4043118:	2109883a 	add	r4,r4,r4
 404311c:	9909883a 	add	r4,r19,r4
 4043120:	24000117 	ldw	r16,4(r4)
 4043124:	213ffe04 	addi	r4,r4,-8
 4043128:	24009726 	beq	r4,r16,4043388 <_malloc_r+0x2f4>
 404312c:	80800117 	ldw	r2,4(r16)
 4043130:	01bfff04 	movi	r6,-4
 4043134:	014003c4 	movi	r5,15
 4043138:	1184703a 	and	r2,r2,r6
 404313c:	1447c83a 	sub	r3,r2,r17
 4043140:	28c00716 	blt	r5,r3,4043160 <_malloc_r+0xcc>
 4043144:	1800920e 	bge	r3,zero,4043390 <_malloc_r+0x2fc>
 4043148:	84000317 	ldw	r16,12(r16)
 404314c:	24008e26 	beq	r4,r16,4043388 <_malloc_r+0x2f4>
 4043150:	80800117 	ldw	r2,4(r16)
 4043154:	1184703a 	and	r2,r2,r6
 4043158:	1447c83a 	sub	r3,r2,r17
 404315c:	28fff90e 	bge	r5,r3,4043144 <__flash_rwdata_start+0xfffe8a14>
 4043160:	3809883a 	mov	r4,r7
 4043164:	01808034 	movhi	r6,512
 4043168:	9c000417 	ldw	r16,16(r19)
 404316c:	3181b804 	addi	r6,r6,1760
 4043170:	32000204 	addi	r8,r6,8
 4043174:	82013426 	beq	r16,r8,4043648 <_malloc_r+0x5b4>
 4043178:	80c00117 	ldw	r3,4(r16)
 404317c:	00bfff04 	movi	r2,-4
 4043180:	188e703a 	and	r7,r3,r2
 4043184:	3c45c83a 	sub	r2,r7,r17
 4043188:	00c003c4 	movi	r3,15
 404318c:	18811f16 	blt	r3,r2,404360c <_malloc_r+0x578>
 4043190:	32000515 	stw	r8,20(r6)
 4043194:	32000415 	stw	r8,16(r6)
 4043198:	10007f0e 	bge	r2,zero,4043398 <_malloc_r+0x304>
 404319c:	00807fc4 	movi	r2,511
 40431a0:	11c0fd36 	bltu	r2,r7,4043598 <_malloc_r+0x504>
 40431a4:	3806d0fa 	srli	r3,r7,3
 40431a8:	01c00044 	movi	r7,1
 40431ac:	30800117 	ldw	r2,4(r6)
 40431b0:	19400044 	addi	r5,r3,1
 40431b4:	294b883a 	add	r5,r5,r5
 40431b8:	1807d0ba 	srai	r3,r3,2
 40431bc:	294b883a 	add	r5,r5,r5
 40431c0:	294b883a 	add	r5,r5,r5
 40431c4:	298b883a 	add	r5,r5,r6
 40431c8:	38c6983a 	sll	r3,r7,r3
 40431cc:	29c00017 	ldw	r7,0(r5)
 40431d0:	2a7ffe04 	addi	r9,r5,-8
 40431d4:	1886b03a 	or	r3,r3,r2
 40431d8:	82400315 	stw	r9,12(r16)
 40431dc:	81c00215 	stw	r7,8(r16)
 40431e0:	30c00115 	stw	r3,4(r6)
 40431e4:	2c000015 	stw	r16,0(r5)
 40431e8:	3c000315 	stw	r16,12(r7)
 40431ec:	2005d0ba 	srai	r2,r4,2
 40431f0:	01400044 	movi	r5,1
 40431f4:	288a983a 	sll	r5,r5,r2
 40431f8:	19406f36 	bltu	r3,r5,40433b8 <_malloc_r+0x324>
 40431fc:	28c4703a 	and	r2,r5,r3
 4043200:	10000a1e 	bne	r2,zero,404322c <_malloc_r+0x198>
 4043204:	00bfff04 	movi	r2,-4
 4043208:	294b883a 	add	r5,r5,r5
 404320c:	2088703a 	and	r4,r4,r2
 4043210:	28c4703a 	and	r2,r5,r3
 4043214:	21000104 	addi	r4,r4,4
 4043218:	1000041e 	bne	r2,zero,404322c <_malloc_r+0x198>
 404321c:	294b883a 	add	r5,r5,r5
 4043220:	28c4703a 	and	r2,r5,r3
 4043224:	21000104 	addi	r4,r4,4
 4043228:	103ffc26 	beq	r2,zero,404321c <__flash_rwdata_start+0xfffe8aec>
 404322c:	02bfff04 	movi	r10,-4
 4043230:	024003c4 	movi	r9,15
 4043234:	21800044 	addi	r6,r4,1
 4043238:	318d883a 	add	r6,r6,r6
 404323c:	318d883a 	add	r6,r6,r6
 4043240:	318d883a 	add	r6,r6,r6
 4043244:	998d883a 	add	r6,r19,r6
 4043248:	333ffe04 	addi	r12,r6,-8
 404324c:	2017883a 	mov	r11,r4
 4043250:	31800104 	addi	r6,r6,4
 4043254:	34000017 	ldw	r16,0(r6)
 4043258:	31fffd04 	addi	r7,r6,-12
 404325c:	81c0041e 	bne	r16,r7,4043270 <_malloc_r+0x1dc>
 4043260:	0000fb06 	br	4043650 <_malloc_r+0x5bc>
 4043264:	1801030e 	bge	r3,zero,4043674 <_malloc_r+0x5e0>
 4043268:	84000317 	ldw	r16,12(r16)
 404326c:	81c0f826 	beq	r16,r7,4043650 <_malloc_r+0x5bc>
 4043270:	80800117 	ldw	r2,4(r16)
 4043274:	1284703a 	and	r2,r2,r10
 4043278:	1447c83a 	sub	r3,r2,r17
 404327c:	48fff90e 	bge	r9,r3,4043264 <__flash_rwdata_start+0xfffe8b34>
 4043280:	80800317 	ldw	r2,12(r16)
 4043284:	81000217 	ldw	r4,8(r16)
 4043288:	89400054 	ori	r5,r17,1
 404328c:	81400115 	stw	r5,4(r16)
 4043290:	20800315 	stw	r2,12(r4)
 4043294:	11000215 	stw	r4,8(r2)
 4043298:	8463883a 	add	r17,r16,r17
 404329c:	9c400515 	stw	r17,20(r19)
 40432a0:	9c400415 	stw	r17,16(r19)
 40432a4:	18800054 	ori	r2,r3,1
 40432a8:	88800115 	stw	r2,4(r17)
 40432ac:	8a000315 	stw	r8,12(r17)
 40432b0:	8a000215 	stw	r8,8(r17)
 40432b4:	88e3883a 	add	r17,r17,r3
 40432b8:	88c00015 	stw	r3,0(r17)
 40432bc:	9009883a 	mov	r4,r18
 40432c0:	40506200 	call	4050620 <__malloc_unlock>
 40432c4:	80800204 	addi	r2,r16,8
 40432c8:	00001b06 	br	4043338 <_malloc_r+0x2a4>
 40432cc:	04400404 	movi	r17,16
 40432d0:	89402536 	bltu	r17,r5,4043368 <_malloc_r+0x2d4>
 40432d4:	40505000 	call	4050500 <__malloc_lock>
 40432d8:	00800184 	movi	r2,6
 40432dc:	01000084 	movi	r4,2
 40432e0:	04c08034 	movhi	r19,512
 40432e4:	1085883a 	add	r2,r2,r2
 40432e8:	9cc1b804 	addi	r19,r19,1760
 40432ec:	1085883a 	add	r2,r2,r2
 40432f0:	9885883a 	add	r2,r19,r2
 40432f4:	14000117 	ldw	r16,4(r2)
 40432f8:	10fffe04 	addi	r3,r2,-8
 40432fc:	80c0d926 	beq	r16,r3,4043664 <_malloc_r+0x5d0>
 4043300:	80c00117 	ldw	r3,4(r16)
 4043304:	81000317 	ldw	r4,12(r16)
 4043308:	00bfff04 	movi	r2,-4
 404330c:	1884703a 	and	r2,r3,r2
 4043310:	81400217 	ldw	r5,8(r16)
 4043314:	8085883a 	add	r2,r16,r2
 4043318:	10c00117 	ldw	r3,4(r2)
 404331c:	29000315 	stw	r4,12(r5)
 4043320:	21400215 	stw	r5,8(r4)
 4043324:	18c00054 	ori	r3,r3,1
 4043328:	10c00115 	stw	r3,4(r2)
 404332c:	9009883a 	mov	r4,r18
 4043330:	40506200 	call	4050620 <__malloc_unlock>
 4043334:	80800204 	addi	r2,r16,8
 4043338:	dfc00a17 	ldw	ra,40(sp)
 404333c:	df000917 	ldw	fp,36(sp)
 4043340:	ddc00817 	ldw	r23,32(sp)
 4043344:	dd800717 	ldw	r22,28(sp)
 4043348:	dd400617 	ldw	r21,24(sp)
 404334c:	dd000517 	ldw	r20,20(sp)
 4043350:	dcc00417 	ldw	r19,16(sp)
 4043354:	dc800317 	ldw	r18,12(sp)
 4043358:	dc400217 	ldw	r17,8(sp)
 404335c:	dc000117 	ldw	r16,4(sp)
 4043360:	dec00b04 	addi	sp,sp,44
 4043364:	f800283a 	ret
 4043368:	00800304 	movi	r2,12
 404336c:	90800015 	stw	r2,0(r18)
 4043370:	0005883a 	mov	r2,zero
 4043374:	003ff006 	br	4043338 <__flash_rwdata_start+0xfffe8c08>
 4043378:	01002004 	movi	r4,128
 404337c:	02001004 	movi	r8,64
 4043380:	01c00fc4 	movi	r7,63
 4043384:	003f6106 	br	404310c <__flash_rwdata_start+0xfffe89dc>
 4043388:	4009883a 	mov	r4,r8
 404338c:	003f7506 	br	4043164 <__flash_rwdata_start+0xfffe8a34>
 4043390:	81000317 	ldw	r4,12(r16)
 4043394:	003fde06 	br	4043310 <__flash_rwdata_start+0xfffe8be0>
 4043398:	81c5883a 	add	r2,r16,r7
 404339c:	11400117 	ldw	r5,4(r2)
 40433a0:	9009883a 	mov	r4,r18
 40433a4:	29400054 	ori	r5,r5,1
 40433a8:	11400115 	stw	r5,4(r2)
 40433ac:	40506200 	call	4050620 <__malloc_unlock>
 40433b0:	80800204 	addi	r2,r16,8
 40433b4:	003fe006 	br	4043338 <__flash_rwdata_start+0xfffe8c08>
 40433b8:	9c000217 	ldw	r16,8(r19)
 40433bc:	00bfff04 	movi	r2,-4
 40433c0:	85800117 	ldw	r22,4(r16)
 40433c4:	b0ac703a 	and	r22,r22,r2
 40433c8:	b4400336 	bltu	r22,r17,40433d8 <_malloc_r+0x344>
 40433cc:	b445c83a 	sub	r2,r22,r17
 40433d0:	00c003c4 	movi	r3,15
 40433d4:	18805d16 	blt	r3,r2,404354c <_malloc_r+0x4b8>
 40433d8:	05c08034 	movhi	r23,512
 40433dc:	00808034 	movhi	r2,512
 40433e0:	1088aa04 	addi	r2,r2,8872
 40433e4:	bdc86604 	addi	r23,r23,8600
 40433e8:	15400017 	ldw	r21,0(r2)
 40433ec:	b8c00017 	ldw	r3,0(r23)
 40433f0:	00bfffc4 	movi	r2,-1
 40433f4:	858d883a 	add	r6,r16,r22
 40433f8:	8d6b883a 	add	r21,r17,r21
 40433fc:	1880ea26 	beq	r3,r2,40437a8 <_malloc_r+0x714>
 4043400:	ad4403c4 	addi	r21,r21,4111
 4043404:	00bc0004 	movi	r2,-4096
 4043408:	a8aa703a 	and	r21,r21,r2
 404340c:	a80b883a 	mov	r5,r21
 4043410:	9009883a 	mov	r4,r18
 4043414:	d9800015 	stw	r6,0(sp)
 4043418:	4043b280 	call	4043b28 <_sbrk_r>
 404341c:	1029883a 	mov	r20,r2
 4043420:	00bfffc4 	movi	r2,-1
 4043424:	d9800017 	ldw	r6,0(sp)
 4043428:	a080e826 	beq	r20,r2,40437cc <_malloc_r+0x738>
 404342c:	a180a636 	bltu	r20,r6,40436c8 <_malloc_r+0x634>
 4043430:	07008034 	movhi	fp,512
 4043434:	e708cf04 	addi	fp,fp,9020
 4043438:	e0800017 	ldw	r2,0(fp)
 404343c:	a887883a 	add	r3,r21,r2
 4043440:	e0c00015 	stw	r3,0(fp)
 4043444:	3500e626 	beq	r6,r20,40437e0 <_malloc_r+0x74c>
 4043448:	b9000017 	ldw	r4,0(r23)
 404344c:	00bfffc4 	movi	r2,-1
 4043450:	2080ee26 	beq	r4,r2,404380c <_malloc_r+0x778>
 4043454:	a185c83a 	sub	r2,r20,r6
 4043458:	10c5883a 	add	r2,r2,r3
 404345c:	e0800015 	stw	r2,0(fp)
 4043460:	a0c001cc 	andi	r3,r20,7
 4043464:	1800bc26 	beq	r3,zero,4043758 <_malloc_r+0x6c4>
 4043468:	a0e9c83a 	sub	r20,r20,r3
 404346c:	00840204 	movi	r2,4104
 4043470:	a5000204 	addi	r20,r20,8
 4043474:	10c7c83a 	sub	r3,r2,r3
 4043478:	a545883a 	add	r2,r20,r21
 404347c:	1083ffcc 	andi	r2,r2,4095
 4043480:	18abc83a 	sub	r21,r3,r2
 4043484:	a80b883a 	mov	r5,r21
 4043488:	9009883a 	mov	r4,r18
 404348c:	4043b280 	call	4043b28 <_sbrk_r>
 4043490:	00ffffc4 	movi	r3,-1
 4043494:	10c0e126 	beq	r2,r3,404381c <_malloc_r+0x788>
 4043498:	1505c83a 	sub	r2,r2,r20
 404349c:	1545883a 	add	r2,r2,r21
 40434a0:	10800054 	ori	r2,r2,1
 40434a4:	e0c00017 	ldw	r3,0(fp)
 40434a8:	9d000215 	stw	r20,8(r19)
 40434ac:	a0800115 	stw	r2,4(r20)
 40434b0:	a8c7883a 	add	r3,r21,r3
 40434b4:	e0c00015 	stw	r3,0(fp)
 40434b8:	84c00e26 	beq	r16,r19,40434f4 <_malloc_r+0x460>
 40434bc:	018003c4 	movi	r6,15
 40434c0:	3580a72e 	bgeu	r6,r22,4043760 <_malloc_r+0x6cc>
 40434c4:	81400117 	ldw	r5,4(r16)
 40434c8:	013ffe04 	movi	r4,-8
 40434cc:	b0bffd04 	addi	r2,r22,-12
 40434d0:	1104703a 	and	r2,r2,r4
 40434d4:	2900004c 	andi	r4,r5,1
 40434d8:	2088b03a 	or	r4,r4,r2
 40434dc:	81000115 	stw	r4,4(r16)
 40434e0:	01400144 	movi	r5,5
 40434e4:	8089883a 	add	r4,r16,r2
 40434e8:	21400115 	stw	r5,4(r4)
 40434ec:	21400215 	stw	r5,8(r4)
 40434f0:	3080cd36 	bltu	r6,r2,4043828 <_malloc_r+0x794>
 40434f4:	00808034 	movhi	r2,512
 40434f8:	1088a904 	addi	r2,r2,8868
 40434fc:	11000017 	ldw	r4,0(r2)
 4043500:	20c0012e 	bgeu	r4,r3,4043508 <_malloc_r+0x474>
 4043504:	10c00015 	stw	r3,0(r2)
 4043508:	00808034 	movhi	r2,512
 404350c:	1088a804 	addi	r2,r2,8864
 4043510:	11000017 	ldw	r4,0(r2)
 4043514:	9c000217 	ldw	r16,8(r19)
 4043518:	20c0012e 	bgeu	r4,r3,4043520 <_malloc_r+0x48c>
 404351c:	10c00015 	stw	r3,0(r2)
 4043520:	80c00117 	ldw	r3,4(r16)
 4043524:	00bfff04 	movi	r2,-4
 4043528:	1886703a 	and	r3,r3,r2
 404352c:	1c45c83a 	sub	r2,r3,r17
 4043530:	1c400236 	bltu	r3,r17,404353c <_malloc_r+0x4a8>
 4043534:	00c003c4 	movi	r3,15
 4043538:	18800416 	blt	r3,r2,404354c <_malloc_r+0x4b8>
 404353c:	9009883a 	mov	r4,r18
 4043540:	40506200 	call	4050620 <__malloc_unlock>
 4043544:	0005883a 	mov	r2,zero
 4043548:	003f7b06 	br	4043338 <__flash_rwdata_start+0xfffe8c08>
 404354c:	88c00054 	ori	r3,r17,1
 4043550:	80c00115 	stw	r3,4(r16)
 4043554:	8463883a 	add	r17,r16,r17
 4043558:	10800054 	ori	r2,r2,1
 404355c:	9c400215 	stw	r17,8(r19)
 4043560:	88800115 	stw	r2,4(r17)
 4043564:	9009883a 	mov	r4,r18
 4043568:	40506200 	call	4050620 <__malloc_unlock>
 404356c:	80800204 	addi	r2,r16,8
 4043570:	003f7106 	br	4043338 <__flash_rwdata_start+0xfffe8c08>
 4043574:	00c00504 	movi	r3,20
 4043578:	18804a2e 	bgeu	r3,r2,40436a4 <_malloc_r+0x610>
 404357c:	00c01504 	movi	r3,84
 4043580:	18806e36 	bltu	r3,r2,404373c <_malloc_r+0x6a8>
 4043584:	8804d33a 	srli	r2,r17,12
 4043588:	12001bc4 	addi	r8,r2,111
 404358c:	11c01b84 	addi	r7,r2,110
 4043590:	4209883a 	add	r4,r8,r8
 4043594:	003edd06 	br	404310c <__flash_rwdata_start+0xfffe89dc>
 4043598:	3804d27a 	srli	r2,r7,9
 404359c:	00c00104 	movi	r3,4
 40435a0:	1880442e 	bgeu	r3,r2,40436b4 <_malloc_r+0x620>
 40435a4:	00c00504 	movi	r3,20
 40435a8:	18808136 	bltu	r3,r2,40437b0 <_malloc_r+0x71c>
 40435ac:	11401704 	addi	r5,r2,92
 40435b0:	10c016c4 	addi	r3,r2,91
 40435b4:	294b883a 	add	r5,r5,r5
 40435b8:	294b883a 	add	r5,r5,r5
 40435bc:	294b883a 	add	r5,r5,r5
 40435c0:	994b883a 	add	r5,r19,r5
 40435c4:	28800017 	ldw	r2,0(r5)
 40435c8:	01808034 	movhi	r6,512
 40435cc:	297ffe04 	addi	r5,r5,-8
 40435d0:	3181b804 	addi	r6,r6,1760
 40435d4:	28806526 	beq	r5,r2,404376c <_malloc_r+0x6d8>
 40435d8:	01bfff04 	movi	r6,-4
 40435dc:	10c00117 	ldw	r3,4(r2)
 40435e0:	1986703a 	and	r3,r3,r6
 40435e4:	38c0022e 	bgeu	r7,r3,40435f0 <_malloc_r+0x55c>
 40435e8:	10800217 	ldw	r2,8(r2)
 40435ec:	28bffb1e 	bne	r5,r2,40435dc <__flash_rwdata_start+0xfffe8eac>
 40435f0:	11400317 	ldw	r5,12(r2)
 40435f4:	98c00117 	ldw	r3,4(r19)
 40435f8:	81400315 	stw	r5,12(r16)
 40435fc:	80800215 	stw	r2,8(r16)
 4043600:	2c000215 	stw	r16,8(r5)
 4043604:	14000315 	stw	r16,12(r2)
 4043608:	003ef806 	br	40431ec <__flash_rwdata_start+0xfffe8abc>
 404360c:	88c00054 	ori	r3,r17,1
 4043610:	80c00115 	stw	r3,4(r16)
 4043614:	8463883a 	add	r17,r16,r17
 4043618:	34400515 	stw	r17,20(r6)
 404361c:	34400415 	stw	r17,16(r6)
 4043620:	10c00054 	ori	r3,r2,1
 4043624:	8a000315 	stw	r8,12(r17)
 4043628:	8a000215 	stw	r8,8(r17)
 404362c:	88c00115 	stw	r3,4(r17)
 4043630:	88a3883a 	add	r17,r17,r2
 4043634:	88800015 	stw	r2,0(r17)
 4043638:	9009883a 	mov	r4,r18
 404363c:	40506200 	call	4050620 <__malloc_unlock>
 4043640:	80800204 	addi	r2,r16,8
 4043644:	003f3c06 	br	4043338 <__flash_rwdata_start+0xfffe8c08>
 4043648:	30c00117 	ldw	r3,4(r6)
 404364c:	003ee706 	br	40431ec <__flash_rwdata_start+0xfffe8abc>
 4043650:	5ac00044 	addi	r11,r11,1
 4043654:	588000cc 	andi	r2,r11,3
 4043658:	31800204 	addi	r6,r6,8
 404365c:	103efd1e 	bne	r2,zero,4043254 <__flash_rwdata_start+0xfffe8b24>
 4043660:	00002406 	br	40436f4 <_malloc_r+0x660>
 4043664:	14000317 	ldw	r16,12(r2)
 4043668:	143f251e 	bne	r2,r16,4043300 <__flash_rwdata_start+0xfffe8bd0>
 404366c:	21000084 	addi	r4,r4,2
 4043670:	003ebc06 	br	4043164 <__flash_rwdata_start+0xfffe8a34>
 4043674:	8085883a 	add	r2,r16,r2
 4043678:	10c00117 	ldw	r3,4(r2)
 404367c:	81000317 	ldw	r4,12(r16)
 4043680:	81400217 	ldw	r5,8(r16)
 4043684:	18c00054 	ori	r3,r3,1
 4043688:	10c00115 	stw	r3,4(r2)
 404368c:	29000315 	stw	r4,12(r5)
 4043690:	21400215 	stw	r5,8(r4)
 4043694:	9009883a 	mov	r4,r18
 4043698:	40506200 	call	4050620 <__malloc_unlock>
 404369c:	80800204 	addi	r2,r16,8
 40436a0:	003f2506 	br	4043338 <__flash_rwdata_start+0xfffe8c08>
 40436a4:	12001704 	addi	r8,r2,92
 40436a8:	11c016c4 	addi	r7,r2,91
 40436ac:	4209883a 	add	r4,r8,r8
 40436b0:	003e9606 	br	404310c <__flash_rwdata_start+0xfffe89dc>
 40436b4:	3804d1ba 	srli	r2,r7,6
 40436b8:	11400e44 	addi	r5,r2,57
 40436bc:	10c00e04 	addi	r3,r2,56
 40436c0:	294b883a 	add	r5,r5,r5
 40436c4:	003fbc06 	br	40435b8 <__flash_rwdata_start+0xfffe8e88>
 40436c8:	84ff5926 	beq	r16,r19,4043430 <__flash_rwdata_start+0xfffe8d00>
 40436cc:	00808034 	movhi	r2,512
 40436d0:	1081b804 	addi	r2,r2,1760
 40436d4:	14000217 	ldw	r16,8(r2)
 40436d8:	00bfff04 	movi	r2,-4
 40436dc:	80c00117 	ldw	r3,4(r16)
 40436e0:	1886703a 	and	r3,r3,r2
 40436e4:	003f9106 	br	404352c <__flash_rwdata_start+0xfffe8dfc>
 40436e8:	60800217 	ldw	r2,8(r12)
 40436ec:	213fffc4 	addi	r4,r4,-1
 40436f0:	1300651e 	bne	r2,r12,4043888 <_malloc_r+0x7f4>
 40436f4:	208000cc 	andi	r2,r4,3
 40436f8:	633ffe04 	addi	r12,r12,-8
 40436fc:	103ffa1e 	bne	r2,zero,40436e8 <__flash_rwdata_start+0xfffe8fb8>
 4043700:	98800117 	ldw	r2,4(r19)
 4043704:	0146303a 	nor	r3,zero,r5
 4043708:	1884703a 	and	r2,r3,r2
 404370c:	98800115 	stw	r2,4(r19)
 4043710:	294b883a 	add	r5,r5,r5
 4043714:	117f2836 	bltu	r2,r5,40433b8 <__flash_rwdata_start+0xfffe8c88>
 4043718:	283f2726 	beq	r5,zero,40433b8 <__flash_rwdata_start+0xfffe8c88>
 404371c:	2886703a 	and	r3,r5,r2
 4043720:	5809883a 	mov	r4,r11
 4043724:	183ec31e 	bne	r3,zero,4043234 <__flash_rwdata_start+0xfffe8b04>
 4043728:	294b883a 	add	r5,r5,r5
 404372c:	2886703a 	and	r3,r5,r2
 4043730:	21000104 	addi	r4,r4,4
 4043734:	183ffc26 	beq	r3,zero,4043728 <__flash_rwdata_start+0xfffe8ff8>
 4043738:	003ebe06 	br	4043234 <__flash_rwdata_start+0xfffe8b04>
 404373c:	00c05504 	movi	r3,340
 4043740:	18801236 	bltu	r3,r2,404378c <_malloc_r+0x6f8>
 4043744:	8804d3fa 	srli	r2,r17,15
 4043748:	12001e04 	addi	r8,r2,120
 404374c:	11c01dc4 	addi	r7,r2,119
 4043750:	4209883a 	add	r4,r8,r8
 4043754:	003e6d06 	br	404310c <__flash_rwdata_start+0xfffe89dc>
 4043758:	00c40004 	movi	r3,4096
 404375c:	003f4606 	br	4043478 <__flash_rwdata_start+0xfffe8d48>
 4043760:	00800044 	movi	r2,1
 4043764:	a0800115 	stw	r2,4(r20)
 4043768:	003f7406 	br	404353c <__flash_rwdata_start+0xfffe8e0c>
 404376c:	1805d0ba 	srai	r2,r3,2
 4043770:	01c00044 	movi	r7,1
 4043774:	30c00117 	ldw	r3,4(r6)
 4043778:	388e983a 	sll	r7,r7,r2
 404377c:	2805883a 	mov	r2,r5
 4043780:	38c6b03a 	or	r3,r7,r3
 4043784:	30c00115 	stw	r3,4(r6)
 4043788:	003f9b06 	br	40435f8 <__flash_rwdata_start+0xfffe8ec8>
 404378c:	00c15504 	movi	r3,1364
 4043790:	18801a36 	bltu	r3,r2,40437fc <_malloc_r+0x768>
 4043794:	8804d4ba 	srli	r2,r17,18
 4043798:	12001f44 	addi	r8,r2,125
 404379c:	11c01f04 	addi	r7,r2,124
 40437a0:	4209883a 	add	r4,r8,r8
 40437a4:	003e5906 	br	404310c <__flash_rwdata_start+0xfffe89dc>
 40437a8:	ad400404 	addi	r21,r21,16
 40437ac:	003f1706 	br	404340c <__flash_rwdata_start+0xfffe8cdc>
 40437b0:	00c01504 	movi	r3,84
 40437b4:	18802336 	bltu	r3,r2,4043844 <_malloc_r+0x7b0>
 40437b8:	3804d33a 	srli	r2,r7,12
 40437bc:	11401bc4 	addi	r5,r2,111
 40437c0:	10c01b84 	addi	r3,r2,110
 40437c4:	294b883a 	add	r5,r5,r5
 40437c8:	003f7b06 	br	40435b8 <__flash_rwdata_start+0xfffe8e88>
 40437cc:	9c000217 	ldw	r16,8(r19)
 40437d0:	00bfff04 	movi	r2,-4
 40437d4:	80c00117 	ldw	r3,4(r16)
 40437d8:	1886703a 	and	r3,r3,r2
 40437dc:	003f5306 	br	404352c <__flash_rwdata_start+0xfffe8dfc>
 40437e0:	3083ffcc 	andi	r2,r6,4095
 40437e4:	103f181e 	bne	r2,zero,4043448 <__flash_rwdata_start+0xfffe8d18>
 40437e8:	99000217 	ldw	r4,8(r19)
 40437ec:	b545883a 	add	r2,r22,r21
 40437f0:	10800054 	ori	r2,r2,1
 40437f4:	20800115 	stw	r2,4(r4)
 40437f8:	003f3e06 	br	40434f4 <__flash_rwdata_start+0xfffe8dc4>
 40437fc:	01003f84 	movi	r4,254
 4043800:	02001fc4 	movi	r8,127
 4043804:	01c01f84 	movi	r7,126
 4043808:	003e4006 	br	404310c <__flash_rwdata_start+0xfffe89dc>
 404380c:	00808034 	movhi	r2,512
 4043810:	10886604 	addi	r2,r2,8600
 4043814:	15000015 	stw	r20,0(r2)
 4043818:	003f1106 	br	4043460 <__flash_rwdata_start+0xfffe8d30>
 404381c:	00800044 	movi	r2,1
 4043820:	002b883a 	mov	r21,zero
 4043824:	003f1f06 	br	40434a4 <__flash_rwdata_start+0xfffe8d74>
 4043828:	81400204 	addi	r5,r16,8
 404382c:	9009883a 	mov	r4,r18
 4043830:	404802c0 	call	404802c <_free_r>
 4043834:	00808034 	movhi	r2,512
 4043838:	1088cf04 	addi	r2,r2,9020
 404383c:	10c00017 	ldw	r3,0(r2)
 4043840:	003f2c06 	br	40434f4 <__flash_rwdata_start+0xfffe8dc4>
 4043844:	00c05504 	movi	r3,340
 4043848:	18800536 	bltu	r3,r2,4043860 <_malloc_r+0x7cc>
 404384c:	3804d3fa 	srli	r2,r7,15
 4043850:	11401e04 	addi	r5,r2,120
 4043854:	10c01dc4 	addi	r3,r2,119
 4043858:	294b883a 	add	r5,r5,r5
 404385c:	003f5606 	br	40435b8 <__flash_rwdata_start+0xfffe8e88>
 4043860:	00c15504 	movi	r3,1364
 4043864:	18800536 	bltu	r3,r2,404387c <_malloc_r+0x7e8>
 4043868:	3804d4ba 	srli	r2,r7,18
 404386c:	11401f44 	addi	r5,r2,125
 4043870:	10c01f04 	addi	r3,r2,124
 4043874:	294b883a 	add	r5,r5,r5
 4043878:	003f4f06 	br	40435b8 <__flash_rwdata_start+0xfffe8e88>
 404387c:	01403f84 	movi	r5,254
 4043880:	00c01f84 	movi	r3,126
 4043884:	003f4c06 	br	40435b8 <__flash_rwdata_start+0xfffe8e88>
 4043888:	98800117 	ldw	r2,4(r19)
 404388c:	003fa006 	br	4043710 <__flash_rwdata_start+0xfffe8fe0>
 4043890:	8808d0fa 	srli	r4,r17,3
 4043894:	20800044 	addi	r2,r4,1
 4043898:	1085883a 	add	r2,r2,r2
 404389c:	003e9006 	br	40432e0 <__flash_rwdata_start+0xfffe8bb0>

040438a0 <memcpy>:
 40438a0:	defffd04 	addi	sp,sp,-12
 40438a4:	dfc00215 	stw	ra,8(sp)
 40438a8:	dc400115 	stw	r17,4(sp)
 40438ac:	dc000015 	stw	r16,0(sp)
 40438b0:	00c003c4 	movi	r3,15
 40438b4:	2005883a 	mov	r2,r4
 40438b8:	1980452e 	bgeu	r3,r6,40439d0 <memcpy+0x130>
 40438bc:	2906b03a 	or	r3,r5,r4
 40438c0:	18c000cc 	andi	r3,r3,3
 40438c4:	1800441e 	bne	r3,zero,40439d8 <memcpy+0x138>
 40438c8:	347ffc04 	addi	r17,r6,-16
 40438cc:	8822d13a 	srli	r17,r17,4
 40438d0:	28c00104 	addi	r3,r5,4
 40438d4:	23400104 	addi	r13,r4,4
 40438d8:	8820913a 	slli	r16,r17,4
 40438dc:	2b000204 	addi	r12,r5,8
 40438e0:	22c00204 	addi	r11,r4,8
 40438e4:	84000504 	addi	r16,r16,20
 40438e8:	2a800304 	addi	r10,r5,12
 40438ec:	22400304 	addi	r9,r4,12
 40438f0:	2c21883a 	add	r16,r5,r16
 40438f4:	2811883a 	mov	r8,r5
 40438f8:	200f883a 	mov	r7,r4
 40438fc:	41000017 	ldw	r4,0(r8)
 4043900:	1fc00017 	ldw	ra,0(r3)
 4043904:	63c00017 	ldw	r15,0(r12)
 4043908:	39000015 	stw	r4,0(r7)
 404390c:	53800017 	ldw	r14,0(r10)
 4043910:	6fc00015 	stw	ra,0(r13)
 4043914:	5bc00015 	stw	r15,0(r11)
 4043918:	4b800015 	stw	r14,0(r9)
 404391c:	18c00404 	addi	r3,r3,16
 4043920:	39c00404 	addi	r7,r7,16
 4043924:	42000404 	addi	r8,r8,16
 4043928:	6b400404 	addi	r13,r13,16
 404392c:	63000404 	addi	r12,r12,16
 4043930:	5ac00404 	addi	r11,r11,16
 4043934:	52800404 	addi	r10,r10,16
 4043938:	4a400404 	addi	r9,r9,16
 404393c:	1c3fef1e 	bne	r3,r16,40438fc <__flash_rwdata_start+0xfffe91cc>
 4043940:	89c00044 	addi	r7,r17,1
 4043944:	380e913a 	slli	r7,r7,4
 4043948:	310003cc 	andi	r4,r6,15
 404394c:	02c000c4 	movi	r11,3
 4043950:	11c7883a 	add	r3,r2,r7
 4043954:	29cb883a 	add	r5,r5,r7
 4043958:	5900212e 	bgeu	r11,r4,40439e0 <memcpy+0x140>
 404395c:	1813883a 	mov	r9,r3
 4043960:	2811883a 	mov	r8,r5
 4043964:	200f883a 	mov	r7,r4
 4043968:	42800017 	ldw	r10,0(r8)
 404396c:	4a400104 	addi	r9,r9,4
 4043970:	39ffff04 	addi	r7,r7,-4
 4043974:	4abfff15 	stw	r10,-4(r9)
 4043978:	42000104 	addi	r8,r8,4
 404397c:	59fffa36 	bltu	r11,r7,4043968 <__flash_rwdata_start+0xfffe9238>
 4043980:	213fff04 	addi	r4,r4,-4
 4043984:	2008d0ba 	srli	r4,r4,2
 4043988:	318000cc 	andi	r6,r6,3
 404398c:	21000044 	addi	r4,r4,1
 4043990:	2109883a 	add	r4,r4,r4
 4043994:	2109883a 	add	r4,r4,r4
 4043998:	1907883a 	add	r3,r3,r4
 404399c:	290b883a 	add	r5,r5,r4
 40439a0:	30000626 	beq	r6,zero,40439bc <memcpy+0x11c>
 40439a4:	198d883a 	add	r6,r3,r6
 40439a8:	29c00003 	ldbu	r7,0(r5)
 40439ac:	18c00044 	addi	r3,r3,1
 40439b0:	29400044 	addi	r5,r5,1
 40439b4:	19ffffc5 	stb	r7,-1(r3)
 40439b8:	19bffb1e 	bne	r3,r6,40439a8 <__flash_rwdata_start+0xfffe9278>
 40439bc:	dfc00217 	ldw	ra,8(sp)
 40439c0:	dc400117 	ldw	r17,4(sp)
 40439c4:	dc000017 	ldw	r16,0(sp)
 40439c8:	dec00304 	addi	sp,sp,12
 40439cc:	f800283a 	ret
 40439d0:	2007883a 	mov	r3,r4
 40439d4:	003ff206 	br	40439a0 <__flash_rwdata_start+0xfffe9270>
 40439d8:	2007883a 	mov	r3,r4
 40439dc:	003ff106 	br	40439a4 <__flash_rwdata_start+0xfffe9274>
 40439e0:	200d883a 	mov	r6,r4
 40439e4:	003fee06 	br	40439a0 <__flash_rwdata_start+0xfffe9270>

040439e8 <_printf_r>:
 40439e8:	defffd04 	addi	sp,sp,-12
 40439ec:	2805883a 	mov	r2,r5
 40439f0:	dfc00015 	stw	ra,0(sp)
 40439f4:	d9800115 	stw	r6,4(sp)
 40439f8:	d9c00215 	stw	r7,8(sp)
 40439fc:	21400217 	ldw	r5,8(r4)
 4043a00:	d9c00104 	addi	r7,sp,4
 4043a04:	100d883a 	mov	r6,r2
 4043a08:	4043c140 	call	4043c14 <___vfprintf_internal_r>
 4043a0c:	dfc00017 	ldw	ra,0(sp)
 4043a10:	dec00304 	addi	sp,sp,12
 4043a14:	f800283a 	ret

04043a18 <printf>:
 4043a18:	defffc04 	addi	sp,sp,-16
 4043a1c:	dfc00015 	stw	ra,0(sp)
 4043a20:	d9400115 	stw	r5,4(sp)
 4043a24:	d9800215 	stw	r6,8(sp)
 4043a28:	d9c00315 	stw	r7,12(sp)
 4043a2c:	00808034 	movhi	r2,512
 4043a30:	10886904 	addi	r2,r2,8612
 4043a34:	10800017 	ldw	r2,0(r2)
 4043a38:	200b883a 	mov	r5,r4
 4043a3c:	d9800104 	addi	r6,sp,4
 4043a40:	11000217 	ldw	r4,8(r2)
 4043a44:	4045e0c0 	call	4045e0c <__vfprintf_internal>
 4043a48:	dfc00017 	ldw	ra,0(sp)
 4043a4c:	dec00404 	addi	sp,sp,16
 4043a50:	f800283a 	ret

04043a54 <_puts_r>:
 4043a54:	defff604 	addi	sp,sp,-40
 4043a58:	dc000715 	stw	r16,28(sp)
 4043a5c:	2021883a 	mov	r16,r4
 4043a60:	2809883a 	mov	r4,r5
 4043a64:	dc400815 	stw	r17,32(sp)
 4043a68:	dfc00915 	stw	ra,36(sp)
 4043a6c:	2823883a 	mov	r17,r5
 4043a70:	4043b7c0 	call	4043b7c <strlen>
 4043a74:	10c00044 	addi	r3,r2,1
 4043a78:	d8800115 	stw	r2,4(sp)
 4043a7c:	00808034 	movhi	r2,512
 4043a80:	10809204 	addi	r2,r2,584
 4043a84:	d8800215 	stw	r2,8(sp)
 4043a88:	00800044 	movi	r2,1
 4043a8c:	d8800315 	stw	r2,12(sp)
 4043a90:	00800084 	movi	r2,2
 4043a94:	dc400015 	stw	r17,0(sp)
 4043a98:	d8c00615 	stw	r3,24(sp)
 4043a9c:	dec00415 	stw	sp,16(sp)
 4043aa0:	d8800515 	stw	r2,20(sp)
 4043aa4:	80000226 	beq	r16,zero,4043ab0 <_puts_r+0x5c>
 4043aa8:	80800e17 	ldw	r2,56(r16)
 4043aac:	10001426 	beq	r2,zero,4043b00 <_puts_r+0xac>
 4043ab0:	81400217 	ldw	r5,8(r16)
 4043ab4:	2880030b 	ldhu	r2,12(r5)
 4043ab8:	10c8000c 	andi	r3,r2,8192
 4043abc:	1800061e 	bne	r3,zero,4043ad8 <_puts_r+0x84>
 4043ac0:	29001917 	ldw	r4,100(r5)
 4043ac4:	00f7ffc4 	movi	r3,-8193
 4043ac8:	10880014 	ori	r2,r2,8192
 4043acc:	20c6703a 	and	r3,r4,r3
 4043ad0:	2880030d 	sth	r2,12(r5)
 4043ad4:	28c01915 	stw	r3,100(r5)
 4043ad8:	d9800404 	addi	r6,sp,16
 4043adc:	8009883a 	mov	r4,r16
 4043ae0:	404833c0 	call	404833c <__sfvwrite_r>
 4043ae4:	1000091e 	bne	r2,zero,4043b0c <_puts_r+0xb8>
 4043ae8:	00800284 	movi	r2,10
 4043aec:	dfc00917 	ldw	ra,36(sp)
 4043af0:	dc400817 	ldw	r17,32(sp)
 4043af4:	dc000717 	ldw	r16,28(sp)
 4043af8:	dec00a04 	addi	sp,sp,40
 4043afc:	f800283a 	ret
 4043b00:	8009883a 	mov	r4,r16
 4043b04:	4047eb80 	call	4047eb8 <__sinit>
 4043b08:	003fe906 	br	4043ab0 <__flash_rwdata_start+0xfffe9380>
 4043b0c:	00bfffc4 	movi	r2,-1
 4043b10:	003ff606 	br	4043aec <__flash_rwdata_start+0xfffe93bc>

04043b14 <puts>:
 4043b14:	00808034 	movhi	r2,512
 4043b18:	10886904 	addi	r2,r2,8612
 4043b1c:	200b883a 	mov	r5,r4
 4043b20:	11000017 	ldw	r4,0(r2)
 4043b24:	4043a541 	jmpi	4043a54 <_puts_r>

04043b28 <_sbrk_r>:
 4043b28:	defffd04 	addi	sp,sp,-12
 4043b2c:	dc000015 	stw	r16,0(sp)
 4043b30:	04008034 	movhi	r16,512
 4043b34:	dc400115 	stw	r17,4(sp)
 4043b38:	8408ab04 	addi	r16,r16,8876
 4043b3c:	2023883a 	mov	r17,r4
 4043b40:	2809883a 	mov	r4,r5
 4043b44:	dfc00215 	stw	ra,8(sp)
 4043b48:	80000015 	stw	zero,0(r16)
 4043b4c:	40501f80 	call	40501f8 <sbrk>
 4043b50:	00ffffc4 	movi	r3,-1
 4043b54:	10c00526 	beq	r2,r3,4043b6c <_sbrk_r+0x44>
 4043b58:	dfc00217 	ldw	ra,8(sp)
 4043b5c:	dc400117 	ldw	r17,4(sp)
 4043b60:	dc000017 	ldw	r16,0(sp)
 4043b64:	dec00304 	addi	sp,sp,12
 4043b68:	f800283a 	ret
 4043b6c:	80c00017 	ldw	r3,0(r16)
 4043b70:	183ff926 	beq	r3,zero,4043b58 <__flash_rwdata_start+0xfffe9428>
 4043b74:	88c00015 	stw	r3,0(r17)
 4043b78:	003ff706 	br	4043b58 <__flash_rwdata_start+0xfffe9428>

04043b7c <strlen>:
 4043b7c:	208000cc 	andi	r2,r4,3
 4043b80:	10002026 	beq	r2,zero,4043c04 <strlen+0x88>
 4043b84:	20800007 	ldb	r2,0(r4)
 4043b88:	10002026 	beq	r2,zero,4043c0c <strlen+0x90>
 4043b8c:	2005883a 	mov	r2,r4
 4043b90:	00000206 	br	4043b9c <strlen+0x20>
 4043b94:	10c00007 	ldb	r3,0(r2)
 4043b98:	18001826 	beq	r3,zero,4043bfc <strlen+0x80>
 4043b9c:	10800044 	addi	r2,r2,1
 4043ba0:	10c000cc 	andi	r3,r2,3
 4043ba4:	183ffb1e 	bne	r3,zero,4043b94 <__flash_rwdata_start+0xfffe9464>
 4043ba8:	10c00017 	ldw	r3,0(r2)
 4043bac:	01ffbff4 	movhi	r7,65279
 4043bb0:	39ffbfc4 	addi	r7,r7,-257
 4043bb4:	00ca303a 	nor	r5,zero,r3
 4043bb8:	01a02074 	movhi	r6,32897
 4043bbc:	19c7883a 	add	r3,r3,r7
 4043bc0:	31a02004 	addi	r6,r6,-32640
 4043bc4:	1946703a 	and	r3,r3,r5
 4043bc8:	1986703a 	and	r3,r3,r6
 4043bcc:	1800091e 	bne	r3,zero,4043bf4 <strlen+0x78>
 4043bd0:	10800104 	addi	r2,r2,4
 4043bd4:	10c00017 	ldw	r3,0(r2)
 4043bd8:	19cb883a 	add	r5,r3,r7
 4043bdc:	00c6303a 	nor	r3,zero,r3
 4043be0:	28c6703a 	and	r3,r5,r3
 4043be4:	1986703a 	and	r3,r3,r6
 4043be8:	183ff926 	beq	r3,zero,4043bd0 <__flash_rwdata_start+0xfffe94a0>
 4043bec:	00000106 	br	4043bf4 <strlen+0x78>
 4043bf0:	10800044 	addi	r2,r2,1
 4043bf4:	10c00007 	ldb	r3,0(r2)
 4043bf8:	183ffd1e 	bne	r3,zero,4043bf0 <__flash_rwdata_start+0xfffe94c0>
 4043bfc:	1105c83a 	sub	r2,r2,r4
 4043c00:	f800283a 	ret
 4043c04:	2005883a 	mov	r2,r4
 4043c08:	003fe706 	br	4043ba8 <__flash_rwdata_start+0xfffe9478>
 4043c0c:	0005883a 	mov	r2,zero
 4043c10:	f800283a 	ret

04043c14 <___vfprintf_internal_r>:
 4043c14:	deffb804 	addi	sp,sp,-288
 4043c18:	dfc04715 	stw	ra,284(sp)
 4043c1c:	ddc04515 	stw	r23,276(sp)
 4043c20:	dd404315 	stw	r21,268(sp)
 4043c24:	d9002c15 	stw	r4,176(sp)
 4043c28:	282f883a 	mov	r23,r5
 4043c2c:	302b883a 	mov	r21,r6
 4043c30:	d9c02d15 	stw	r7,180(sp)
 4043c34:	df004615 	stw	fp,280(sp)
 4043c38:	dd804415 	stw	r22,272(sp)
 4043c3c:	dd004215 	stw	r20,264(sp)
 4043c40:	dcc04115 	stw	r19,260(sp)
 4043c44:	dc804015 	stw	r18,256(sp)
 4043c48:	dc403f15 	stw	r17,252(sp)
 4043c4c:	dc003e15 	stw	r16,248(sp)
 4043c50:	4048a2c0 	call	4048a2c <_localeconv_r>
 4043c54:	10800017 	ldw	r2,0(r2)
 4043c58:	1009883a 	mov	r4,r2
 4043c5c:	d8803415 	stw	r2,208(sp)
 4043c60:	4043b7c0 	call	4043b7c <strlen>
 4043c64:	d8803715 	stw	r2,220(sp)
 4043c68:	d8802c17 	ldw	r2,176(sp)
 4043c6c:	10000226 	beq	r2,zero,4043c78 <___vfprintf_internal_r+0x64>
 4043c70:	10800e17 	ldw	r2,56(r2)
 4043c74:	1000f926 	beq	r2,zero,404405c <___vfprintf_internal_r+0x448>
 4043c78:	b880030b 	ldhu	r2,12(r23)
 4043c7c:	10c8000c 	andi	r3,r2,8192
 4043c80:	1800061e 	bne	r3,zero,4043c9c <___vfprintf_internal_r+0x88>
 4043c84:	b9001917 	ldw	r4,100(r23)
 4043c88:	00f7ffc4 	movi	r3,-8193
 4043c8c:	10880014 	ori	r2,r2,8192
 4043c90:	20c6703a 	and	r3,r4,r3
 4043c94:	b880030d 	sth	r2,12(r23)
 4043c98:	b8c01915 	stw	r3,100(r23)
 4043c9c:	10c0020c 	andi	r3,r2,8
 4043ca0:	1800c126 	beq	r3,zero,4043fa8 <___vfprintf_internal_r+0x394>
 4043ca4:	b8c00417 	ldw	r3,16(r23)
 4043ca8:	1800bf26 	beq	r3,zero,4043fa8 <___vfprintf_internal_r+0x394>
 4043cac:	1080068c 	andi	r2,r2,26
 4043cb0:	00c00284 	movi	r3,10
 4043cb4:	10c0c426 	beq	r2,r3,4043fc8 <___vfprintf_internal_r+0x3b4>
 4043cb8:	d8c00404 	addi	r3,sp,16
 4043cbc:	05008034 	movhi	r20,512
 4043cc0:	d9001e04 	addi	r4,sp,120
 4043cc4:	a500a384 	addi	r20,r20,654
 4043cc8:	d8c01e15 	stw	r3,120(sp)
 4043ccc:	d8002015 	stw	zero,128(sp)
 4043cd0:	d8001f15 	stw	zero,124(sp)
 4043cd4:	d8003315 	stw	zero,204(sp)
 4043cd8:	d8003615 	stw	zero,216(sp)
 4043cdc:	d8003815 	stw	zero,224(sp)
 4043ce0:	1811883a 	mov	r8,r3
 4043ce4:	d8003915 	stw	zero,228(sp)
 4043ce8:	d8003a15 	stw	zero,232(sp)
 4043cec:	d8002f15 	stw	zero,188(sp)
 4043cf0:	d9002815 	stw	r4,160(sp)
 4043cf4:	a8800007 	ldb	r2,0(r21)
 4043cf8:	10027b26 	beq	r2,zero,40446e8 <___vfprintf_internal_r+0xad4>
 4043cfc:	00c00944 	movi	r3,37
 4043d00:	a821883a 	mov	r16,r21
 4043d04:	10c0021e 	bne	r2,r3,4043d10 <___vfprintf_internal_r+0xfc>
 4043d08:	00001406 	br	4043d5c <___vfprintf_internal_r+0x148>
 4043d0c:	10c00326 	beq	r2,r3,4043d1c <___vfprintf_internal_r+0x108>
 4043d10:	84000044 	addi	r16,r16,1
 4043d14:	80800007 	ldb	r2,0(r16)
 4043d18:	103ffc1e 	bne	r2,zero,4043d0c <__flash_rwdata_start+0xfffe95dc>
 4043d1c:	8563c83a 	sub	r17,r16,r21
 4043d20:	88000e26 	beq	r17,zero,4043d5c <___vfprintf_internal_r+0x148>
 4043d24:	d8c02017 	ldw	r3,128(sp)
 4043d28:	d8801f17 	ldw	r2,124(sp)
 4043d2c:	45400015 	stw	r21,0(r8)
 4043d30:	1c47883a 	add	r3,r3,r17
 4043d34:	10800044 	addi	r2,r2,1
 4043d38:	d8c02015 	stw	r3,128(sp)
 4043d3c:	44400115 	stw	r17,4(r8)
 4043d40:	d8801f15 	stw	r2,124(sp)
 4043d44:	00c001c4 	movi	r3,7
 4043d48:	1880a716 	blt	r3,r2,4043fe8 <___vfprintf_internal_r+0x3d4>
 4043d4c:	42000204 	addi	r8,r8,8
 4043d50:	d9402f17 	ldw	r5,188(sp)
 4043d54:	2c4b883a 	add	r5,r5,r17
 4043d58:	d9402f15 	stw	r5,188(sp)
 4043d5c:	80800007 	ldb	r2,0(r16)
 4043d60:	1000a826 	beq	r2,zero,4044004 <___vfprintf_internal_r+0x3f0>
 4043d64:	84400047 	ldb	r17,1(r16)
 4043d68:	00bfffc4 	movi	r2,-1
 4043d6c:	85400044 	addi	r21,r16,1
 4043d70:	d8002785 	stb	zero,158(sp)
 4043d74:	0007883a 	mov	r3,zero
 4043d78:	000f883a 	mov	r7,zero
 4043d7c:	d8802915 	stw	r2,164(sp)
 4043d80:	d8003115 	stw	zero,196(sp)
 4043d84:	0025883a 	mov	r18,zero
 4043d88:	01401604 	movi	r5,88
 4043d8c:	01800244 	movi	r6,9
 4043d90:	02800a84 	movi	r10,42
 4043d94:	02401b04 	movi	r9,108
 4043d98:	ad400044 	addi	r21,r21,1
 4043d9c:	88bff804 	addi	r2,r17,-32
 4043da0:	28830436 	bltu	r5,r2,40449b4 <___vfprintf_internal_r+0xda0>
 4043da4:	100490ba 	slli	r2,r2,2
 4043da8:	01010134 	movhi	r4,1028
 4043dac:	210f6f04 	addi	r4,r4,15804
 4043db0:	1105883a 	add	r2,r2,r4
 4043db4:	10800017 	ldw	r2,0(r2)
 4043db8:	1000683a 	jmp	r2
 4043dbc:	040448d4 	movui	r16,4387
 4043dc0:	040449b4 	movhi	r16,4390
 4043dc4:	040449b4 	movhi	r16,4390
 4043dc8:	040448f4 	movhi	r16,4387
 4043dcc:	040449b4 	movhi	r16,4390
 4043dd0:	040449b4 	movhi	r16,4390
 4043dd4:	040449b4 	movhi	r16,4390
 4043dd8:	040449b4 	movhi	r16,4390
 4043ddc:	040449b4 	movhi	r16,4390
 4043de0:	040449b4 	movhi	r16,4390
 4043de4:	04044068 	cmpgeui	r16,zero,4353
 4043de8:	04044810 	cmplti	r16,zero,4384
 4043dec:	040449b4 	movhi	r16,4390
 4043df0:	04043f30 	cmpltui	r16,zero,4348
 4043df4:	04044090 	cmplti	r16,zero,4354
 4043df8:	040449b4 	movhi	r16,4390
 4043dfc:	040440d0 	cmplti	r16,zero,4355
 4043e00:	040440dc 	xori	r16,zero,4355
 4043e04:	040440dc 	xori	r16,zero,4355
 4043e08:	040440dc 	xori	r16,zero,4355
 4043e0c:	040440dc 	xori	r16,zero,4355
 4043e10:	040440dc 	xori	r16,zero,4355
 4043e14:	040440dc 	xori	r16,zero,4355
 4043e18:	040440dc 	xori	r16,zero,4355
 4043e1c:	040440dc 	xori	r16,zero,4355
 4043e20:	040440dc 	xori	r16,zero,4355
 4043e24:	040449b4 	movhi	r16,4390
 4043e28:	040449b4 	movhi	r16,4390
 4043e2c:	040449b4 	movhi	r16,4390
 4043e30:	040449b4 	movhi	r16,4390
 4043e34:	040449b4 	movhi	r16,4390
 4043e38:	040449b4 	movhi	r16,4390
 4043e3c:	040449b4 	movhi	r16,4390
 4043e40:	040449b4 	movhi	r16,4390
 4043e44:	040449b4 	movhi	r16,4390
 4043e48:	040449b4 	movhi	r16,4390
 4043e4c:	04044110 	cmplti	r16,zero,4356
 4043e50:	040441cc 	andi	r16,zero,4359
 4043e54:	040449b4 	movhi	r16,4390
 4043e58:	040441cc 	andi	r16,zero,4359
 4043e5c:	040449b4 	movhi	r16,4390
 4043e60:	040449b4 	movhi	r16,4390
 4043e64:	040449b4 	movhi	r16,4390
 4043e68:	040449b4 	movhi	r16,4390
 4043e6c:	0404426c 	andhi	r16,zero,4361
 4043e70:	040449b4 	movhi	r16,4390
 4043e74:	040449b4 	movhi	r16,4390
 4043e78:	04044278 	rdprs	r16,zero,4361
 4043e7c:	040449b4 	movhi	r16,4390
 4043e80:	040449b4 	movhi	r16,4390
 4043e84:	040449b4 	movhi	r16,4390
 4043e88:	040449b4 	movhi	r16,4390
 4043e8c:	040449b4 	movhi	r16,4390
 4043e90:	040446f0 	cmpltui	r16,zero,4379
 4043e94:	040449b4 	movhi	r16,4390
 4043e98:	040449b4 	movhi	r16,4390
 4043e9c:	04044750 	cmplti	r16,zero,4381
 4043ea0:	040449b4 	movhi	r16,4390
 4043ea4:	040449b4 	movhi	r16,4390
 4043ea8:	040449b4 	movhi	r16,4390
 4043eac:	040449b4 	movhi	r16,4390
 4043eb0:	040449b4 	movhi	r16,4390
 4043eb4:	040449b4 	movhi	r16,4390
 4043eb8:	040449b4 	movhi	r16,4390
 4043ebc:	040449b4 	movhi	r16,4390
 4043ec0:	040449b4 	movhi	r16,4390
 4043ec4:	040449b4 	movhi	r16,4390
 4043ec8:	04044960 	cmpeqi	r16,zero,4389
 4043ecc:	04044900 	call	404490 <OSCtxSw_SWITCH_PC+0x404450>
 4043ed0:	040441cc 	andi	r16,zero,4359
 4043ed4:	040441cc 	andi	r16,zero,4359
 4043ed8:	040441cc 	andi	r16,zero,4359
 4043edc:	04044910 	cmplti	r16,zero,4388
 4043ee0:	04044900 	call	404490 <OSCtxSw_SWITCH_PC+0x404450>
 4043ee4:	040449b4 	movhi	r16,4390
 4043ee8:	040449b4 	movhi	r16,4390
 4043eec:	0404491c 	xori	r16,zero,4388
 4043ef0:	040449b4 	movhi	r16,4390
 4043ef4:	0404492c 	andhi	r16,zero,4388
 4043ef8:	04044800 	call	404480 <OSCtxSw_SWITCH_PC+0x404440>
 4043efc:	04043f3c 	xorhi	r16,zero,4348
 4043f00:	04044820 	cmpeqi	r16,zero,4384
 4043f04:	040449b4 	movhi	r16,4390
 4043f08:	0404482c 	andhi	r16,zero,4384
 4043f0c:	040449b4 	movhi	r16,4390
 4043f10:	04044888 	cmpgei	r16,zero,4386
 4043f14:	040449b4 	movhi	r16,4390
 4043f18:	040449b4 	movhi	r16,4390
 4043f1c:	04044898 	cmpnei	r16,zero,4386
 4043f20:	d9003117 	ldw	r4,196(sp)
 4043f24:	d8802d15 	stw	r2,180(sp)
 4043f28:	0109c83a 	sub	r4,zero,r4
 4043f2c:	d9003115 	stw	r4,196(sp)
 4043f30:	94800114 	ori	r18,r18,4
 4043f34:	ac400007 	ldb	r17,0(r21)
 4043f38:	003f9706 	br	4043d98 <__flash_rwdata_start+0xfffe9668>
 4043f3c:	00800c04 	movi	r2,48
 4043f40:	d9002d17 	ldw	r4,180(sp)
 4043f44:	d9402917 	ldw	r5,164(sp)
 4043f48:	d8802705 	stb	r2,156(sp)
 4043f4c:	00801e04 	movi	r2,120
 4043f50:	d8802745 	stb	r2,157(sp)
 4043f54:	d8002785 	stb	zero,158(sp)
 4043f58:	20c00104 	addi	r3,r4,4
 4043f5c:	24c00017 	ldw	r19,0(r4)
 4043f60:	002d883a 	mov	r22,zero
 4043f64:	90800094 	ori	r2,r18,2
 4043f68:	28029a16 	blt	r5,zero,40449d4 <___vfprintf_internal_r+0xdc0>
 4043f6c:	00bfdfc4 	movi	r2,-129
 4043f70:	90a4703a 	and	r18,r18,r2
 4043f74:	d8c02d15 	stw	r3,180(sp)
 4043f78:	94800094 	ori	r18,r18,2
 4043f7c:	9802871e 	bne	r19,zero,404499c <___vfprintf_internal_r+0xd88>
 4043f80:	00808034 	movhi	r2,512
 4043f84:	10809c04 	addi	r2,r2,624
 4043f88:	d8803915 	stw	r2,228(sp)
 4043f8c:	04401e04 	movi	r17,120
 4043f90:	d8802917 	ldw	r2,164(sp)
 4043f94:	0039883a 	mov	fp,zero
 4043f98:	1001e926 	beq	r2,zero,4044740 <___vfprintf_internal_r+0xb2c>
 4043f9c:	0027883a 	mov	r19,zero
 4043fa0:	002d883a 	mov	r22,zero
 4043fa4:	00020506 	br	40447bc <___vfprintf_internal_r+0xba8>
 4043fa8:	d9002c17 	ldw	r4,176(sp)
 4043fac:	b80b883a 	mov	r5,r23
 4043fb0:	4045ee40 	call	4045ee4 <__swsetup_r>
 4043fb4:	1005ac1e 	bne	r2,zero,4045668 <___vfprintf_internal_r+0x1a54>
 4043fb8:	b880030b 	ldhu	r2,12(r23)
 4043fbc:	00c00284 	movi	r3,10
 4043fc0:	1080068c 	andi	r2,r2,26
 4043fc4:	10ff3c1e 	bne	r2,r3,4043cb8 <__flash_rwdata_start+0xfffe9588>
 4043fc8:	b880038f 	ldh	r2,14(r23)
 4043fcc:	103f3a16 	blt	r2,zero,4043cb8 <__flash_rwdata_start+0xfffe9588>
 4043fd0:	d9c02d17 	ldw	r7,180(sp)
 4043fd4:	d9002c17 	ldw	r4,176(sp)
 4043fd8:	a80d883a 	mov	r6,r21
 4043fdc:	b80b883a 	mov	r5,r23
 4043fe0:	4045e280 	call	4045e28 <__sbprintf>
 4043fe4:	00001106 	br	404402c <___vfprintf_internal_r+0x418>
 4043fe8:	d9002c17 	ldw	r4,176(sp)
 4043fec:	d9801e04 	addi	r6,sp,120
 4043ff0:	b80b883a 	mov	r5,r23
 4043ff4:	404a8680 	call	404a868 <__sprint_r>
 4043ff8:	1000081e 	bne	r2,zero,404401c <___vfprintf_internal_r+0x408>
 4043ffc:	da000404 	addi	r8,sp,16
 4044000:	003f5306 	br	4043d50 <__flash_rwdata_start+0xfffe9620>
 4044004:	d8802017 	ldw	r2,128(sp)
 4044008:	10000426 	beq	r2,zero,404401c <___vfprintf_internal_r+0x408>
 404400c:	d9002c17 	ldw	r4,176(sp)
 4044010:	d9801e04 	addi	r6,sp,120
 4044014:	b80b883a 	mov	r5,r23
 4044018:	404a8680 	call	404a868 <__sprint_r>
 404401c:	b880030b 	ldhu	r2,12(r23)
 4044020:	1080100c 	andi	r2,r2,64
 4044024:	1005901e 	bne	r2,zero,4045668 <___vfprintf_internal_r+0x1a54>
 4044028:	d8802f17 	ldw	r2,188(sp)
 404402c:	dfc04717 	ldw	ra,284(sp)
 4044030:	df004617 	ldw	fp,280(sp)
 4044034:	ddc04517 	ldw	r23,276(sp)
 4044038:	dd804417 	ldw	r22,272(sp)
 404403c:	dd404317 	ldw	r21,268(sp)
 4044040:	dd004217 	ldw	r20,264(sp)
 4044044:	dcc04117 	ldw	r19,260(sp)
 4044048:	dc804017 	ldw	r18,256(sp)
 404404c:	dc403f17 	ldw	r17,252(sp)
 4044050:	dc003e17 	ldw	r16,248(sp)
 4044054:	dec04804 	addi	sp,sp,288
 4044058:	f800283a 	ret
 404405c:	d9002c17 	ldw	r4,176(sp)
 4044060:	4047eb80 	call	4047eb8 <__sinit>
 4044064:	003f0406 	br	4043c78 <__flash_rwdata_start+0xfffe9548>
 4044068:	d8802d17 	ldw	r2,180(sp)
 404406c:	d9002d17 	ldw	r4,180(sp)
 4044070:	10800017 	ldw	r2,0(r2)
 4044074:	d8803115 	stw	r2,196(sp)
 4044078:	20800104 	addi	r2,r4,4
 404407c:	d9003117 	ldw	r4,196(sp)
 4044080:	203fa716 	blt	r4,zero,4043f20 <__flash_rwdata_start+0xfffe97f0>
 4044084:	d8802d15 	stw	r2,180(sp)
 4044088:	ac400007 	ldb	r17,0(r21)
 404408c:	003f4206 	br	4043d98 <__flash_rwdata_start+0xfffe9668>
 4044090:	ac400007 	ldb	r17,0(r21)
 4044094:	aac00044 	addi	r11,r21,1
 4044098:	8a872826 	beq	r17,r10,4045d3c <___vfprintf_internal_r+0x2128>
 404409c:	88bff404 	addi	r2,r17,-48
 40440a0:	0009883a 	mov	r4,zero
 40440a4:	30867d36 	bltu	r6,r2,4045a9c <___vfprintf_internal_r+0x1e88>
 40440a8:	5c400007 	ldb	r17,0(r11)
 40440ac:	210002a4 	muli	r4,r4,10
 40440b0:	5d400044 	addi	r21,r11,1
 40440b4:	a817883a 	mov	r11,r21
 40440b8:	2089883a 	add	r4,r4,r2
 40440bc:	88bff404 	addi	r2,r17,-48
 40440c0:	30bff92e 	bgeu	r6,r2,40440a8 <__flash_rwdata_start+0xfffe9978>
 40440c4:	2005c916 	blt	r4,zero,40457ec <___vfprintf_internal_r+0x1bd8>
 40440c8:	d9002915 	stw	r4,164(sp)
 40440cc:	003f3306 	br	4043d9c <__flash_rwdata_start+0xfffe966c>
 40440d0:	94802014 	ori	r18,r18,128
 40440d4:	ac400007 	ldb	r17,0(r21)
 40440d8:	003f2f06 	br	4043d98 <__flash_rwdata_start+0xfffe9668>
 40440dc:	a809883a 	mov	r4,r21
 40440e0:	d8003115 	stw	zero,196(sp)
 40440e4:	88bff404 	addi	r2,r17,-48
 40440e8:	0017883a 	mov	r11,zero
 40440ec:	24400007 	ldb	r17,0(r4)
 40440f0:	5ac002a4 	muli	r11,r11,10
 40440f4:	ad400044 	addi	r21,r21,1
 40440f8:	a809883a 	mov	r4,r21
 40440fc:	12d7883a 	add	r11,r2,r11
 4044100:	88bff404 	addi	r2,r17,-48
 4044104:	30bff92e 	bgeu	r6,r2,40440ec <__flash_rwdata_start+0xfffe99bc>
 4044108:	dac03115 	stw	r11,196(sp)
 404410c:	003f2306 	br	4043d9c <__flash_rwdata_start+0xfffe966c>
 4044110:	18c03fcc 	andi	r3,r3,255
 4044114:	18072b1e 	bne	r3,zero,4045dc4 <___vfprintf_internal_r+0x21b0>
 4044118:	94800414 	ori	r18,r18,16
 404411c:	9080080c 	andi	r2,r18,32
 4044120:	10037b26 	beq	r2,zero,4044f10 <___vfprintf_internal_r+0x12fc>
 4044124:	d9402d17 	ldw	r5,180(sp)
 4044128:	28800117 	ldw	r2,4(r5)
 404412c:	2cc00017 	ldw	r19,0(r5)
 4044130:	29400204 	addi	r5,r5,8
 4044134:	d9402d15 	stw	r5,180(sp)
 4044138:	102d883a 	mov	r22,r2
 404413c:	10044b16 	blt	r2,zero,404526c <___vfprintf_internal_r+0x1658>
 4044140:	d9402917 	ldw	r5,164(sp)
 4044144:	df002783 	ldbu	fp,158(sp)
 4044148:	2803bc16 	blt	r5,zero,404503c <___vfprintf_internal_r+0x1428>
 404414c:	00ffdfc4 	movi	r3,-129
 4044150:	9d84b03a 	or	r2,r19,r22
 4044154:	90e4703a 	and	r18,r18,r3
 4044158:	10017726 	beq	r2,zero,4044738 <___vfprintf_internal_r+0xb24>
 404415c:	b0038326 	beq	r22,zero,4044f6c <___vfprintf_internal_r+0x1358>
 4044160:	dc402a15 	stw	r17,168(sp)
 4044164:	dc001e04 	addi	r16,sp,120
 4044168:	b023883a 	mov	r17,r22
 404416c:	402d883a 	mov	r22,r8
 4044170:	9809883a 	mov	r4,r19
 4044174:	880b883a 	mov	r5,r17
 4044178:	01800284 	movi	r6,10
 404417c:	000f883a 	mov	r7,zero
 4044180:	404cc600 	call	404cc60 <__umoddi3>
 4044184:	10800c04 	addi	r2,r2,48
 4044188:	843fffc4 	addi	r16,r16,-1
 404418c:	9809883a 	mov	r4,r19
 4044190:	880b883a 	mov	r5,r17
 4044194:	80800005 	stb	r2,0(r16)
 4044198:	01800284 	movi	r6,10
 404419c:	000f883a 	mov	r7,zero
 40441a0:	404c6e80 	call	404c6e8 <__udivdi3>
 40441a4:	1027883a 	mov	r19,r2
 40441a8:	10c4b03a 	or	r2,r2,r3
 40441ac:	1823883a 	mov	r17,r3
 40441b0:	103fef1e 	bne	r2,zero,4044170 <__flash_rwdata_start+0xfffe9a40>
 40441b4:	d8c02817 	ldw	r3,160(sp)
 40441b8:	dc402a17 	ldw	r17,168(sp)
 40441bc:	b011883a 	mov	r8,r22
 40441c0:	1c07c83a 	sub	r3,r3,r16
 40441c4:	d8c02e15 	stw	r3,184(sp)
 40441c8:	00005906 	br	4044330 <___vfprintf_internal_r+0x71c>
 40441cc:	18c03fcc 	andi	r3,r3,255
 40441d0:	1806fa1e 	bne	r3,zero,4045dbc <___vfprintf_internal_r+0x21a8>
 40441d4:	9080020c 	andi	r2,r18,8
 40441d8:	10048a26 	beq	r2,zero,4045404 <___vfprintf_internal_r+0x17f0>
 40441dc:	d8c02d17 	ldw	r3,180(sp)
 40441e0:	d9002d17 	ldw	r4,180(sp)
 40441e4:	d9402d17 	ldw	r5,180(sp)
 40441e8:	18c00017 	ldw	r3,0(r3)
 40441ec:	21000117 	ldw	r4,4(r4)
 40441f0:	29400204 	addi	r5,r5,8
 40441f4:	d8c03615 	stw	r3,216(sp)
 40441f8:	d9003815 	stw	r4,224(sp)
 40441fc:	d9402d15 	stw	r5,180(sp)
 4044200:	d9003617 	ldw	r4,216(sp)
 4044204:	d9403817 	ldw	r5,224(sp)
 4044208:	da003d15 	stw	r8,244(sp)
 404420c:	04000044 	movi	r16,1
 4044210:	404a4e00 	call	404a4e0 <__fpclassifyd>
 4044214:	da003d17 	ldw	r8,244(sp)
 4044218:	14041f1e 	bne	r2,r16,4045298 <___vfprintf_internal_r+0x1684>
 404421c:	d9003617 	ldw	r4,216(sp)
 4044220:	d9403817 	ldw	r5,224(sp)
 4044224:	000d883a 	mov	r6,zero
 4044228:	000f883a 	mov	r7,zero
 404422c:	404e4900 	call	404e490 <__ledf2>
 4044230:	da003d17 	ldw	r8,244(sp)
 4044234:	1005be16 	blt	r2,zero,4045930 <___vfprintf_internal_r+0x1d1c>
 4044238:	df002783 	ldbu	fp,158(sp)
 404423c:	008011c4 	movi	r2,71
 4044240:	1445330e 	bge	r2,r17,4045710 <___vfprintf_internal_r+0x1afc>
 4044244:	04008034 	movhi	r16,512
 4044248:	84009404 	addi	r16,r16,592
 404424c:	00c000c4 	movi	r3,3
 4044250:	00bfdfc4 	movi	r2,-129
 4044254:	d8c02a15 	stw	r3,168(sp)
 4044258:	90a4703a 	and	r18,r18,r2
 404425c:	d8c02e15 	stw	r3,184(sp)
 4044260:	d8002915 	stw	zero,164(sp)
 4044264:	d8003215 	stw	zero,200(sp)
 4044268:	00003706 	br	4044348 <___vfprintf_internal_r+0x734>
 404426c:	94800214 	ori	r18,r18,8
 4044270:	ac400007 	ldb	r17,0(r21)
 4044274:	003ec806 	br	4043d98 <__flash_rwdata_start+0xfffe9668>
 4044278:	18c03fcc 	andi	r3,r3,255
 404427c:	1806db1e 	bne	r3,zero,4045dec <___vfprintf_internal_r+0x21d8>
 4044280:	94800414 	ori	r18,r18,16
 4044284:	9080080c 	andi	r2,r18,32
 4044288:	1002d826 	beq	r2,zero,4044dec <___vfprintf_internal_r+0x11d8>
 404428c:	d9402d17 	ldw	r5,180(sp)
 4044290:	d8c02917 	ldw	r3,164(sp)
 4044294:	d8002785 	stb	zero,158(sp)
 4044298:	28800204 	addi	r2,r5,8
 404429c:	2cc00017 	ldw	r19,0(r5)
 40442a0:	2d800117 	ldw	r22,4(r5)
 40442a4:	18048f16 	blt	r3,zero,40454e4 <___vfprintf_internal_r+0x18d0>
 40442a8:	013fdfc4 	movi	r4,-129
 40442ac:	9d86b03a 	or	r3,r19,r22
 40442b0:	d8802d15 	stw	r2,180(sp)
 40442b4:	9124703a 	and	r18,r18,r4
 40442b8:	1802d91e 	bne	r3,zero,4044e20 <___vfprintf_internal_r+0x120c>
 40442bc:	d8c02917 	ldw	r3,164(sp)
 40442c0:	0039883a 	mov	fp,zero
 40442c4:	1805c326 	beq	r3,zero,40459d4 <___vfprintf_internal_r+0x1dc0>
 40442c8:	0027883a 	mov	r19,zero
 40442cc:	002d883a 	mov	r22,zero
 40442d0:	dc001e04 	addi	r16,sp,120
 40442d4:	9806d0fa 	srli	r3,r19,3
 40442d8:	b008977a 	slli	r4,r22,29
 40442dc:	b02cd0fa 	srli	r22,r22,3
 40442e0:	9cc001cc 	andi	r19,r19,7
 40442e4:	98800c04 	addi	r2,r19,48
 40442e8:	843fffc4 	addi	r16,r16,-1
 40442ec:	20e6b03a 	or	r19,r4,r3
 40442f0:	80800005 	stb	r2,0(r16)
 40442f4:	9d86b03a 	or	r3,r19,r22
 40442f8:	183ff61e 	bne	r3,zero,40442d4 <__flash_rwdata_start+0xfffe9ba4>
 40442fc:	90c0004c 	andi	r3,r18,1
 4044300:	18013b26 	beq	r3,zero,40447f0 <___vfprintf_internal_r+0xbdc>
 4044304:	10803fcc 	andi	r2,r2,255
 4044308:	1080201c 	xori	r2,r2,128
 404430c:	10bfe004 	addi	r2,r2,-128
 4044310:	00c00c04 	movi	r3,48
 4044314:	10c13626 	beq	r2,r3,40447f0 <___vfprintf_internal_r+0xbdc>
 4044318:	80ffffc5 	stb	r3,-1(r16)
 404431c:	d8c02817 	ldw	r3,160(sp)
 4044320:	80bfffc4 	addi	r2,r16,-1
 4044324:	1021883a 	mov	r16,r2
 4044328:	1887c83a 	sub	r3,r3,r2
 404432c:	d8c02e15 	stw	r3,184(sp)
 4044330:	d8802e17 	ldw	r2,184(sp)
 4044334:	d9002917 	ldw	r4,164(sp)
 4044338:	1100010e 	bge	r2,r4,4044340 <___vfprintf_internal_r+0x72c>
 404433c:	2005883a 	mov	r2,r4
 4044340:	d8802a15 	stw	r2,168(sp)
 4044344:	d8003215 	stw	zero,200(sp)
 4044348:	e7003fcc 	andi	fp,fp,255
 404434c:	e700201c 	xori	fp,fp,128
 4044350:	e73fe004 	addi	fp,fp,-128
 4044354:	e0000326 	beq	fp,zero,4044364 <___vfprintf_internal_r+0x750>
 4044358:	d8c02a17 	ldw	r3,168(sp)
 404435c:	18c00044 	addi	r3,r3,1
 4044360:	d8c02a15 	stw	r3,168(sp)
 4044364:	90c0008c 	andi	r3,r18,2
 4044368:	d8c02b15 	stw	r3,172(sp)
 404436c:	18000326 	beq	r3,zero,404437c <___vfprintf_internal_r+0x768>
 4044370:	d8c02a17 	ldw	r3,168(sp)
 4044374:	18c00084 	addi	r3,r3,2
 4044378:	d8c02a15 	stw	r3,168(sp)
 404437c:	90c0210c 	andi	r3,r18,132
 4044380:	d8c03015 	stw	r3,192(sp)
 4044384:	1801a31e 	bne	r3,zero,4044a14 <___vfprintf_internal_r+0xe00>
 4044388:	d9003117 	ldw	r4,196(sp)
 404438c:	d8c02a17 	ldw	r3,168(sp)
 4044390:	20e7c83a 	sub	r19,r4,r3
 4044394:	04c19f0e 	bge	zero,r19,4044a14 <___vfprintf_internal_r+0xe00>
 4044398:	02400404 	movi	r9,16
 404439c:	d8c02017 	ldw	r3,128(sp)
 40443a0:	d8801f17 	ldw	r2,124(sp)
 40443a4:	4cc50d0e 	bge	r9,r19,40457dc <___vfprintf_internal_r+0x1bc8>
 40443a8:	01408034 	movhi	r5,512
 40443ac:	2940a784 	addi	r5,r5,670
 40443b0:	dc403b15 	stw	r17,236(sp)
 40443b4:	d9403515 	stw	r5,212(sp)
 40443b8:	9823883a 	mov	r17,r19
 40443bc:	482d883a 	mov	r22,r9
 40443c0:	9027883a 	mov	r19,r18
 40443c4:	070001c4 	movi	fp,7
 40443c8:	8025883a 	mov	r18,r16
 40443cc:	dc002c17 	ldw	r16,176(sp)
 40443d0:	00000306 	br	40443e0 <___vfprintf_internal_r+0x7cc>
 40443d4:	8c7ffc04 	addi	r17,r17,-16
 40443d8:	42000204 	addi	r8,r8,8
 40443dc:	b440130e 	bge	r22,r17,404442c <___vfprintf_internal_r+0x818>
 40443e0:	01008034 	movhi	r4,512
 40443e4:	18c00404 	addi	r3,r3,16
 40443e8:	10800044 	addi	r2,r2,1
 40443ec:	2100a784 	addi	r4,r4,670
 40443f0:	41000015 	stw	r4,0(r8)
 40443f4:	45800115 	stw	r22,4(r8)
 40443f8:	d8c02015 	stw	r3,128(sp)
 40443fc:	d8801f15 	stw	r2,124(sp)
 4044400:	e0bff40e 	bge	fp,r2,40443d4 <__flash_rwdata_start+0xfffe9ca4>
 4044404:	d9801e04 	addi	r6,sp,120
 4044408:	b80b883a 	mov	r5,r23
 404440c:	8009883a 	mov	r4,r16
 4044410:	404a8680 	call	404a868 <__sprint_r>
 4044414:	103f011e 	bne	r2,zero,404401c <__flash_rwdata_start+0xfffe98ec>
 4044418:	8c7ffc04 	addi	r17,r17,-16
 404441c:	d8c02017 	ldw	r3,128(sp)
 4044420:	d8801f17 	ldw	r2,124(sp)
 4044424:	da000404 	addi	r8,sp,16
 4044428:	b47fed16 	blt	r22,r17,40443e0 <__flash_rwdata_start+0xfffe9cb0>
 404442c:	9021883a 	mov	r16,r18
 4044430:	9825883a 	mov	r18,r19
 4044434:	8827883a 	mov	r19,r17
 4044438:	dc403b17 	ldw	r17,236(sp)
 404443c:	d9403517 	ldw	r5,212(sp)
 4044440:	98c7883a 	add	r3,r19,r3
 4044444:	10800044 	addi	r2,r2,1
 4044448:	41400015 	stw	r5,0(r8)
 404444c:	44c00115 	stw	r19,4(r8)
 4044450:	d8c02015 	stw	r3,128(sp)
 4044454:	d8801f15 	stw	r2,124(sp)
 4044458:	010001c4 	movi	r4,7
 404445c:	2082a316 	blt	r4,r2,4044eec <___vfprintf_internal_r+0x12d8>
 4044460:	df002787 	ldb	fp,158(sp)
 4044464:	42000204 	addi	r8,r8,8
 4044468:	e0000c26 	beq	fp,zero,404449c <___vfprintf_internal_r+0x888>
 404446c:	d8801f17 	ldw	r2,124(sp)
 4044470:	d9002784 	addi	r4,sp,158
 4044474:	18c00044 	addi	r3,r3,1
 4044478:	10800044 	addi	r2,r2,1
 404447c:	41000015 	stw	r4,0(r8)
 4044480:	01000044 	movi	r4,1
 4044484:	41000115 	stw	r4,4(r8)
 4044488:	d8c02015 	stw	r3,128(sp)
 404448c:	d8801f15 	stw	r2,124(sp)
 4044490:	010001c4 	movi	r4,7
 4044494:	20823c16 	blt	r4,r2,4044d88 <___vfprintf_internal_r+0x1174>
 4044498:	42000204 	addi	r8,r8,8
 404449c:	d8802b17 	ldw	r2,172(sp)
 40444a0:	10000c26 	beq	r2,zero,40444d4 <___vfprintf_internal_r+0x8c0>
 40444a4:	d8801f17 	ldw	r2,124(sp)
 40444a8:	d9002704 	addi	r4,sp,156
 40444ac:	18c00084 	addi	r3,r3,2
 40444b0:	10800044 	addi	r2,r2,1
 40444b4:	41000015 	stw	r4,0(r8)
 40444b8:	01000084 	movi	r4,2
 40444bc:	41000115 	stw	r4,4(r8)
 40444c0:	d8c02015 	stw	r3,128(sp)
 40444c4:	d8801f15 	stw	r2,124(sp)
 40444c8:	010001c4 	movi	r4,7
 40444cc:	20823616 	blt	r4,r2,4044da8 <___vfprintf_internal_r+0x1194>
 40444d0:	42000204 	addi	r8,r8,8
 40444d4:	d9003017 	ldw	r4,192(sp)
 40444d8:	00802004 	movi	r2,128
 40444dc:	20819926 	beq	r4,r2,4044b44 <___vfprintf_internal_r+0xf30>
 40444e0:	d9402917 	ldw	r5,164(sp)
 40444e4:	d8802e17 	ldw	r2,184(sp)
 40444e8:	28adc83a 	sub	r22,r5,r2
 40444ec:	0580310e 	bge	zero,r22,40445b4 <___vfprintf_internal_r+0x9a0>
 40444f0:	07000404 	movi	fp,16
 40444f4:	d8801f17 	ldw	r2,124(sp)
 40444f8:	e584140e 	bge	fp,r22,404554c <___vfprintf_internal_r+0x1938>
 40444fc:	01408034 	movhi	r5,512
 4044500:	2940a384 	addi	r5,r5,654
 4044504:	dc402915 	stw	r17,164(sp)
 4044508:	d9402b15 	stw	r5,172(sp)
 404450c:	b023883a 	mov	r17,r22
 4044510:	04c001c4 	movi	r19,7
 4044514:	a82d883a 	mov	r22,r21
 4044518:	902b883a 	mov	r21,r18
 404451c:	8025883a 	mov	r18,r16
 4044520:	dc002c17 	ldw	r16,176(sp)
 4044524:	00000306 	br	4044534 <___vfprintf_internal_r+0x920>
 4044528:	8c7ffc04 	addi	r17,r17,-16
 404452c:	42000204 	addi	r8,r8,8
 4044530:	e440110e 	bge	fp,r17,4044578 <___vfprintf_internal_r+0x964>
 4044534:	18c00404 	addi	r3,r3,16
 4044538:	10800044 	addi	r2,r2,1
 404453c:	45000015 	stw	r20,0(r8)
 4044540:	47000115 	stw	fp,4(r8)
 4044544:	d8c02015 	stw	r3,128(sp)
 4044548:	d8801f15 	stw	r2,124(sp)
 404454c:	98bff60e 	bge	r19,r2,4044528 <__flash_rwdata_start+0xfffe9df8>
 4044550:	d9801e04 	addi	r6,sp,120
 4044554:	b80b883a 	mov	r5,r23
 4044558:	8009883a 	mov	r4,r16
 404455c:	404a8680 	call	404a868 <__sprint_r>
 4044560:	103eae1e 	bne	r2,zero,404401c <__flash_rwdata_start+0xfffe98ec>
 4044564:	8c7ffc04 	addi	r17,r17,-16
 4044568:	d8c02017 	ldw	r3,128(sp)
 404456c:	d8801f17 	ldw	r2,124(sp)
 4044570:	da000404 	addi	r8,sp,16
 4044574:	e47fef16 	blt	fp,r17,4044534 <__flash_rwdata_start+0xfffe9e04>
 4044578:	9021883a 	mov	r16,r18
 404457c:	a825883a 	mov	r18,r21
 4044580:	b02b883a 	mov	r21,r22
 4044584:	882d883a 	mov	r22,r17
 4044588:	dc402917 	ldw	r17,164(sp)
 404458c:	d9002b17 	ldw	r4,172(sp)
 4044590:	1d87883a 	add	r3,r3,r22
 4044594:	10800044 	addi	r2,r2,1
 4044598:	41000015 	stw	r4,0(r8)
 404459c:	45800115 	stw	r22,4(r8)
 40445a0:	d8c02015 	stw	r3,128(sp)
 40445a4:	d8801f15 	stw	r2,124(sp)
 40445a8:	010001c4 	movi	r4,7
 40445ac:	2081ee16 	blt	r4,r2,4044d68 <___vfprintf_internal_r+0x1154>
 40445b0:	42000204 	addi	r8,r8,8
 40445b4:	9080400c 	andi	r2,r18,256
 40445b8:	1001181e 	bne	r2,zero,4044a1c <___vfprintf_internal_r+0xe08>
 40445bc:	d9402e17 	ldw	r5,184(sp)
 40445c0:	d8801f17 	ldw	r2,124(sp)
 40445c4:	44000015 	stw	r16,0(r8)
 40445c8:	1947883a 	add	r3,r3,r5
 40445cc:	10800044 	addi	r2,r2,1
 40445d0:	41400115 	stw	r5,4(r8)
 40445d4:	d8c02015 	stw	r3,128(sp)
 40445d8:	d8801f15 	stw	r2,124(sp)
 40445dc:	010001c4 	movi	r4,7
 40445e0:	2081d316 	blt	r4,r2,4044d30 <___vfprintf_internal_r+0x111c>
 40445e4:	42000204 	addi	r8,r8,8
 40445e8:	9480010c 	andi	r18,r18,4
 40445ec:	90003226 	beq	r18,zero,40446b8 <___vfprintf_internal_r+0xaa4>
 40445f0:	d9403117 	ldw	r5,196(sp)
 40445f4:	d8802a17 	ldw	r2,168(sp)
 40445f8:	28a1c83a 	sub	r16,r5,r2
 40445fc:	04002e0e 	bge	zero,r16,40446b8 <___vfprintf_internal_r+0xaa4>
 4044600:	04400404 	movi	r17,16
 4044604:	d8801f17 	ldw	r2,124(sp)
 4044608:	8c04a20e 	bge	r17,r16,4045894 <___vfprintf_internal_r+0x1c80>
 404460c:	01408034 	movhi	r5,512
 4044610:	2940a784 	addi	r5,r5,670
 4044614:	d9403515 	stw	r5,212(sp)
 4044618:	048001c4 	movi	r18,7
 404461c:	dcc02c17 	ldw	r19,176(sp)
 4044620:	00000306 	br	4044630 <___vfprintf_internal_r+0xa1c>
 4044624:	843ffc04 	addi	r16,r16,-16
 4044628:	42000204 	addi	r8,r8,8
 404462c:	8c00130e 	bge	r17,r16,404467c <___vfprintf_internal_r+0xa68>
 4044630:	01008034 	movhi	r4,512
 4044634:	18c00404 	addi	r3,r3,16
 4044638:	10800044 	addi	r2,r2,1
 404463c:	2100a784 	addi	r4,r4,670
 4044640:	41000015 	stw	r4,0(r8)
 4044644:	44400115 	stw	r17,4(r8)
 4044648:	d8c02015 	stw	r3,128(sp)
 404464c:	d8801f15 	stw	r2,124(sp)
 4044650:	90bff40e 	bge	r18,r2,4044624 <__flash_rwdata_start+0xfffe9ef4>
 4044654:	d9801e04 	addi	r6,sp,120
 4044658:	b80b883a 	mov	r5,r23
 404465c:	9809883a 	mov	r4,r19
 4044660:	404a8680 	call	404a868 <__sprint_r>
 4044664:	103e6d1e 	bne	r2,zero,404401c <__flash_rwdata_start+0xfffe98ec>
 4044668:	843ffc04 	addi	r16,r16,-16
 404466c:	d8c02017 	ldw	r3,128(sp)
 4044670:	d8801f17 	ldw	r2,124(sp)
 4044674:	da000404 	addi	r8,sp,16
 4044678:	8c3fed16 	blt	r17,r16,4044630 <__flash_rwdata_start+0xfffe9f00>
 404467c:	d9403517 	ldw	r5,212(sp)
 4044680:	1c07883a 	add	r3,r3,r16
 4044684:	10800044 	addi	r2,r2,1
 4044688:	41400015 	stw	r5,0(r8)
 404468c:	44000115 	stw	r16,4(r8)
 4044690:	d8c02015 	stw	r3,128(sp)
 4044694:	d8801f15 	stw	r2,124(sp)
 4044698:	010001c4 	movi	r4,7
 404469c:	2080060e 	bge	r4,r2,40446b8 <___vfprintf_internal_r+0xaa4>
 40446a0:	d9002c17 	ldw	r4,176(sp)
 40446a4:	d9801e04 	addi	r6,sp,120
 40446a8:	b80b883a 	mov	r5,r23
 40446ac:	404a8680 	call	404a868 <__sprint_r>
 40446b0:	103e5a1e 	bne	r2,zero,404401c <__flash_rwdata_start+0xfffe98ec>
 40446b4:	d8c02017 	ldw	r3,128(sp)
 40446b8:	d8803117 	ldw	r2,196(sp)
 40446bc:	d9002a17 	ldw	r4,168(sp)
 40446c0:	1100010e 	bge	r2,r4,40446c8 <___vfprintf_internal_r+0xab4>
 40446c4:	2005883a 	mov	r2,r4
 40446c8:	d9402f17 	ldw	r5,188(sp)
 40446cc:	288b883a 	add	r5,r5,r2
 40446d0:	d9402f15 	stw	r5,188(sp)
 40446d4:	18019e1e 	bne	r3,zero,4044d50 <___vfprintf_internal_r+0x113c>
 40446d8:	a8800007 	ldb	r2,0(r21)
 40446dc:	d8001f15 	stw	zero,124(sp)
 40446e0:	da000404 	addi	r8,sp,16
 40446e4:	103d851e 	bne	r2,zero,4043cfc <__flash_rwdata_start+0xfffe95cc>
 40446e8:	a821883a 	mov	r16,r21
 40446ec:	003d9b06 	br	4043d5c <__flash_rwdata_start+0xfffe962c>
 40446f0:	18c03fcc 	andi	r3,r3,255
 40446f4:	1805c11e 	bne	r3,zero,4045dfc <___vfprintf_internal_r+0x21e8>
 40446f8:	94800414 	ori	r18,r18,16
 40446fc:	9080080c 	andi	r2,r18,32
 4044700:	10020c26 	beq	r2,zero,4044f34 <___vfprintf_internal_r+0x1320>
 4044704:	d8802d17 	ldw	r2,180(sp)
 4044708:	d9002917 	ldw	r4,164(sp)
 404470c:	d8002785 	stb	zero,158(sp)
 4044710:	10c00204 	addi	r3,r2,8
 4044714:	14c00017 	ldw	r19,0(r2)
 4044718:	15800117 	ldw	r22,4(r2)
 404471c:	20040f16 	blt	r4,zero,404575c <___vfprintf_internal_r+0x1b48>
 4044720:	013fdfc4 	movi	r4,-129
